(lp0
(lp1
I161
aI399
aI451
aI505
aI509
aI536
aI565
aI636
aI701
aI831
aI957
aa(lp2
I15
aI98
aI185
aI234
aI546
aI603
aI690
aI699
aI934
aI935
aa(lp3
I9
aI120
aI160
aI220
aI292
aI432
aI628
aI709
aI764
aI766
aI831
aI841
aI884
aI910
aa(lp4
I20
aI103
aI144
aI615
aI816
aI823
aI936
aa(lp5
I26
aI227
aI424
aI471
aI504
aI580
aI634
aI782
aI797
aI963
aa(lp6
I57
aI78
aI183
aI353
aI430
aI491
aI527
aI692
aI814
aI921
aa(lp7
I263
aI335
aI433
aI575
aI615
aI709
aI740
aI759
aI982
aa(lp8
I65
aI85
aI109
aI229
aI324
aI364
aI441
aI471
aI684
aI716
aI971
aa(lp9
I1
aI60
aI319
aI326
aI422
aI607
aI741
aI775
aI780
aI804
aI863
aa(lp10
I130
aI163
aI178
aI219
aI258
aI339
aI468
aI663
aI725
aI836
aI881
aI883
aI984
aa(lp11
I203
aI343
aI377
aI666
aI712
aI726
aI817
aI826
aI859
aI893
aI931
aa(lp12
I6
aI53
aI112
aI219
aI221
aI227
aI423
aI462
aI673
aI705
aI741
aI753
aI756
aI790
aI873
aI917
aa(lp13
I160
aI167
aI203
aI247
aI307
aI356
aI383
aI643
aI799
aI961
aa(lp14
I35
aI101
aI144
aI155
aI174
aI299
aI360
aI616
aI677
aI829
aI923
aa(lp15
I123
aI148
aI364
aI430
aI517
aI771
aI779
aI837
aa(lp16
I3
aI72
aI127
aI147
aI329
aI737
aI794
aI952
aa(lp17
I75
aI111
aI284
aI318
aI404
aI541
aI803
aI834
aI844
aI952
aa(lp18
I47
aI111
aI154
aI182
aI256
aI264
aI354
aI403
aI464
aI479
aI640
aI980
aI986
aa(lp19
I45
aI121
aI130
aI224
aI270
aI465
aI505
aI534
aI560
aI627
aa(lp20
I44
aI85
aI404
aI406
aI485
aI495
aI510
aI697
aI745
aI806
aI883
aI889
aI902
aI959
aa(lp21
I33
aI79
aI83
aI300
aI410
aI426
aI519
aI627
aI786
aI962
aa(lp22
I80
aI234
aI425
aI497
aI688
aI872
aI964
aa(lp23
I6
aI262
aI307
aI328
aI442
aI621
aI634
aI795
aI986
aa(lp24
I209
aI224
aI305
aI314
aI528
aI594
aI648
aI754
aI767
aI775
aI804
aI842
aI883
aI925
aa(lp25
I167
aI168
aI290
aI320
aI356
aI602
aI797
aI873
aI875
aa(lp26
I30
aI110
aI188
aI335
aI409
aI534
aI798
aI846
aI915
aa(lp27
I13
aI88
aI150
aI193
aI233
aI383
aI439
aI446
aI625
aI633
aI654
aI848
aI887
aI895
aI901
aI975
aa(lp28
I6
aI241
aI365
aI435
aI443
aI519
aI758
aI850
aI944
aa(lp29
I37
aI117
aI128
aI133
aI499
aI586
aI597
aI616
aI630
aa(lp30
I27
aI159
aI165
aI279
aI410
aI559
aI574
aI718
aI764
aI772
aI798
aI859
aI965
aa(lp31
I224
aI389
aI503
aI574
aI627
aI897
aI964
aa(lp32
I169
aI233
aI272
aI288
aI292
aI373
aI492
aI503
aI676
aI801
aa(lp33
I161
aI234
aI248
aI249
aI306
aI469
aI486
aI573
aI679
aI774
aa(lp34
I123
aI182
aI459
aI481
aI505
aI517
aI625
aI652
aI698
aI748
aI768
aI936
aa(lp35
I51
aI237
aI357
aI400
aI487
aI567
aI671
aI805
aI881
aa(lp36
I160
aI292
aI302
aI411
aI596
aI618
aI777
aI928
aI932
aa(lp37
I121
aI276
aI418
aI529
aI531
aI701
aI762
aI770
aI803
aa(lp38
I26
aI112
aI319
aI352
aI363
aI514
aI545
aI583
aI713
aI766
aa(lp39
I43
aI72
aI184
aI342
aI346
aI395
aI430
aI620
aI683
aI738
aI963
aa(lp40
I72
aI132
aI260
aI387
aI542
aI824
aI894
aa(lp41
I173
aI192
aI374
aI405
aI490
aI619
aI620
aI653
aI672
aI680
aI797
aa(lp42
I65
aI113
aI136
aI199
aI272
aI500
aI573
aI700
aI780
aI862
aI936
aI974
aI975
aa(lp43
I21
aI22
aI150
aI256
aI369
aI726
aI949
aI962
aa(lp44
I53
aI188
aI259
aI277
aI314
aI489
aI624
aI633
aI689
aI767
aI787
aI929
aa(lp45
I214
aI235
aI354
aI454
aI976
aa(lp46
I30
aI94
aI135
aI277
aI422
aI820
aI846
aI972
aI999
aa(lp47
I11
aI398
aI418
aI595
aI604
aI654
aI720
aI747
aI765
aI810
aa(lp48
I36
aI95
aI97
aI164
aI219
aI288
aI348
aI432
aI512
aI531
aI653
aI743
aI799
aI800
aI835
aa(lp49
I5
aI91
aI99
aI116
aI447
aI615
aI819
aI829
aI981
aa(lp50
I170
aI256
aI300
aI478
aI647
aI668
aI673
aI743
aI834
aI846
aI898
aa(lp51
I444
aI527
aI567
aI595
aI689
aI764
aI848
aI893
aa(lp52
I136
aI269
aa(lp53
I171
aI236
aI260
aI291
aI385
aI447
aI585
aI599
aI625
aI704
aI710
aI812
aI868
aI882
aI972
aa(lp54
I38
aI62
aI342
aI448
aI533
aI811
aI840
aI846
aI925
aI974
aa(lp55
I41
aI204
aI232
aa(lp56
I9
aI13
aI161
aI257
aI344
aI587
aI593
aI650
aI701
aI710
aI788
aa(lp57
I116
aI194
aI230
aI447
aI508
aI522
aI676
aI759
aI926
aa(lp58
I23
aI133
aI239
aI269
aI281
aI329
aI389
aI427
aI453
aI527
aI573
aI584
aI638
aI683
aI708
aI798
aI948
aa(lp59
I74
aI283
aI394
aI738
aI873
aI917
aI975
aa(lp60
I10
aI64
aI88
aI360
aI584
aI904
aI927
aa(lp61
I142
aI536
aI552
aI631
aI634
aI676
aI780
aI790
aI987
aa(lp62
I52
aI107
aI232
aI277
aI449
aI699
aI788
aI797
aI979
aI985
aa(lp63
I208
aI381
aI481
aI489
aI490
aI811
aI824
aI848
aa(lp64
I86
aI125
aI154
aI187
aI209
aI282
aI318
aI651
aI741
aI830
aa(lp65
I248
aI273
aI393
aI422
aI556
aI616
aI732
aI992
aa(lp66
I109
aI268
aI451
aI477
aI625
aI711
aI721
aI747
aI774
aI868
aa(lp67
I2
aI89
aI226
aI554
aI581
aI673
aI705
aI899
aa(lp68
I243
aI271
aI298
aI344
aI386
aI387
aI393
aI514
aI567
aI660
aI976
aa(lp69
I77
aI194
aI357
aI520
aI523
aI569
aI778
aI785
aa(lp70
I31
aI197
aI199
aI218
aI236
aI411
aI452
aI547
aI553
aI573
aI899
aI953
aa(lp71
I223
aI295
aI341
aI419
aI489
aI632
aI712
aI724
aa(lp72
I33
aI62
aI213
aI340
aI790
aa(lp73
I180
aI273
aI390
aI401
aI504
aI536
aI732
aI781
aI845
aa(lp74
I225
aI515
aI608
aI633
aI681
aI775
aI784
aI935
aa(lp75
I199
aI276
aI395
aI533
aI652
aI763
aI853
aI894
aI956
aa(lp76
I168
aI281
aI843
aI866
aI890
aI898
aI976
aa(lp77
I201
aI391
aI489
aI606
aI858
aI983
aa(lp78
I151
aI260
aI302
aI409
aI988
aI989
aa(lp79
I106
aI143
aI219
aI253
aI380
aI386
aI688
aI709
aI759
aI884
aI894
aI979
aa(lp80
I62
aI193
aI247
aI320
aI410
aI641
aI671
aI900
aa(lp81
I71
aI416
aI606
aI629
aI630
aI633
aI656
aI680
aI729
aI885
aa(lp82
I93
aI201
aI292
aI437
aI479
aI517
aI772
aI866
aa(lp83
I84
aI85
aI333
aI374
aI422
aI650
aI887
aI891
aa(lp84
I137
aI164
aI205
aI384
aI459
aI478
aI485
aI514
aI586
aI615
aI759
aa(lp85
I81
aI353
aI400
aI477
aI507
aI631
aI783
aI821
aI880
aI985
aa(lp86
I274
aI327
aI612
aI624
aI627
aI775
aI959
aa(lp87
I187
aI246
aI279
aI400
aI757
aI758
aI767
aI781
aI881
aI910
aa(lp88
I257
aI277
aI406
aI531
aI545
aI567
aI568
aI716
aI718
aI719
aI858
aI863
aa(lp89
I48
aI139
aI335
aI403
aI447
aI462
aI488
aI609
aI760
aI899
aa(lp90
I100
aI121
aI149
aI367
aI423
aI469
aI653
aI920
aa(lp91
I144
aI285
aI378
aI414
aI435
aI573
aI608
aI609
aI657
aI704
aI754
aI840
aI895
aI908
aa(lp92
I18
aI121
aI253
aI440
aI527
aI573
aI600
aI629
aI833
aI950
aa(lp93
I69
aI330
aI356
aI443
aI546
aI849
aI945
aa(lp94
I13
aI59
aI135
aI222
aI232
aI302
aI371
aI574
aI608
aI667
aI670
aI871
aI938
aI966
aa(lp95
I135
aI190
aI232
aI343
aI442
aI533
aI631
aI656
aI955
aa(lp96
I8
aI41
aI51
aI98
aI137
aI144
aI176
aI381
aI419
aI568
aI710
aI711
aI715
aI861
aa(lp97
I111
aI248
aI264
aI357
aI431
aI552
aI853
aI930
aI948
aa(lp98
I3
aI12
aI70
aI135
aI261
aI278
aI342
aI466
aI499
aI500
aI501
aI551
aI662
aI902
aI937
aa(lp99
I244
aI350
aI396
aI443
aI476
aI710
aI738
aI813
aa(lp100
I64
aI224
aI766
aI779
aI802
aI825
aI928
aa(lp101
I61
aI294
aI562
aI831
aI857
aa(lp102
I20
aI48
aI83
aI128
aI136
aI250
aI255
aI278
aI313
aI437
aI448
aI615
aI712
aI818
aI906
aI972
aa(lp103
I117
aI165
aI339
aI396
aI604
aI639
aI677
aI727
aI830
aI941
aa(lp104
I32
aI45
aI224
aI290
aI386
aI567
aI620
aI707
aI717
aI851
aI878
aa(lp105
I153
aI199
aI384
aI424
aI588
aI593
aI603
aI663
aI714
aI856
aa(lp106
I27
aI68
aI178
aI270
aI321
aI503
aI508
aI787
aa(lp107
I47
aI72
aI168
aI236
aI247
aI437
aI801
aI880
aa(lp108
I23
aI125
aI332
aI375
aI444
aI501
aI605
aI649
aa(lp109
I44
aI54
aI157
aI262
aI778
aI866
aI919
aa(lp110
I98
aI159
aI225
aI282
aI349
aI467
aI924
aa(lp111
I94
aI98
aI108
aI125
aI178
aI487
aI542
aI547
aI596
aI682
aI711
aa(lp112
I192
aI247
aI326
aI347
aI456
aI652
aI790
aI855
aI990
aI998
aa(lp113
I100
aI134
aI158
aI183
aI269
aI492
aI539
aI657
aI720
aI968
aa(lp114
I441
aI604
aI605
aI650
aI882
aa(lp115
I3
aI93
aI182
aI196
aI332
aI361
aI442
aI488
aI532
aI581
aI630
aI701
aI858
aI970
aa(lp116
I186
aI280
aI337
aI406
aI442
aI549
aI554
aI585
aI687
aI777
aI817
aI827
aI833
aI866
aI963
aI990
aa(lp117
I113
aI214
aI274
aI345
aI484
aI511
aI674
aI711
aI813
aI870
aI984
aa(lp118
I12
aI31
aI36
aI104
aI260
aI261
aI269
aI390
aI447
aI567
aI672
aI673
aI859
aI972
aa(lp119
I21
aI77
aI147
aI151
aI215
aI260
aI316
aI418
aI485
aI808
aI854
aI882
aI888
aI960
aI971
aa(lp120
I38
aI134
aI265
aI415
aI431
aI450
aI477
aI589
aI607
aI685
aI729
aI764
aI825
aI926
aa(lp121
I9
aI107
aI129
aI335
aI369
aI458
aI513
aI528
aI577
aI585
aI634
aI790
aI956
aI968
aa(lp122
I412
aI428
aI576
aI715
aI732
aI815
aI862
aI940
aI964
aa(lp123
I210
aI300
aI433
aI532
aI595
aI643
aI738
aI840
aI869
aI973
aa(lp124
I44
aI151
aI180
aI262
aI335
aI555
aI556
aI597
aI606
aI825
aI917
aa(lp125
I66
aI93
aI94
aI117
aI158
aI571
aI574
aI852
aI965
aI979
aa(lp126
I88
aI92
aI235
aI253
aI354
aI504
aI523
aI582
aI680
aI720
aI737
aI853
aa(lp127
I0
aI312
aI974
aa(lp128
I45
aI126
aI286
aI420
aI476
aI602
aI633
aI972
aa(lp129
I21
aI93
aI289
aI292
aI512
aI826
aI991
aa(lp130
I56
aI151
aI225
aI239
aI242
aI356
aI509
aI721
aI863
aI866
aI957
aa(lp131
I29
aI100
aI180
aI189
aI283
aI325
aI404
aI516
aI575
aI589
aI797
aI861
aI867
aI925
aa(lp132
I91
aI242
aI247
aI281
aI309
aI376
aI423
aI527
aI575
aI721
aI854
aI939
aa(lp133
I3
aI206
aI265
aI268
aI332
aI384
aI503
aI566
aI578
aI613
aI673
aI720
aI782
aI912
aI944
aa(lp134
I48
aI61
aI101
aI104
aI175
aI300
aI339
aI351
aI701
aI747
aI836
aI938
aa(lp135
I28
aI99
aI133
aI184
aI276
aI278
aI322
aI509
aI696
aa(lp136
I13
aI48
aI78
aI91
aI162
aI213
aI236
aI291
aI602
aI630
aI870
aI907
aI926
aI998
aa(lp137
I290
aI389
aI417
aI540
aI631
aI638
aI685
aI845
aI906
aI952
aI993
aa(lp138
I157
aI170
aI286
aI377
aI434
aI497
aI827
aI838
aI886
aI888
aI890
aI916
aa(lp139
I13
aI180
aI236
aI357
aI510
aI601
aI757
aI927
aa(lp140
I188
aI318
aI486
aI744
aa(lp141
I125
aI287
aI382
aI542
aI651
aI704
aI754
aa(lp142
I117
aI159
aI194
aI207
aI426
aI440
aI478
aI559
aI807
aa(lp143
I18
aI62
aI281
aI476
aI787
aI914
aa(lp144
I3
aI6
aI205
aI334
aI350
aI630
aI741
aI926
aI930
aa(lp145
I196
aI348
aI407
aI445
aI547
aI610
aI658
aI747
aI807
aI882
aI961
aa(lp146
I86
aI147
aI278
aI468
aI604
aI628
aI684
aI721
aI800
aI889
aa(lp147
I110
aI126
aI225
aI276
aI461
aI498
aI630
aI698
aI798
aI868
aa(lp148
I10
aI179
aI272
aI289
aI325
aI430
aI530
aI544
aI587
aI654
aa(lp149
I162
aI229
aI347
aI425
aI535
aI789
aI914
aI929
aa(lp150
I10
aI432
aI495
aI533
aI625
aI773
aI823
aI878
aa(lp151
I14
aI71
aI158
aI229
aI254
aI264
aI408
aI410
aI554
aI572
aI643
aI753
aI894
aI939
aI947
aa(lp152
I221
aI341
aI386
aI391
aI420
aI557
aI612
aI732
aI814
aI944
aI958
aa(lp153
I10
aI60
aI219
aI299
aI574
aI838
aI888
aI972
aI982
aa(lp154
I59
aI158
aI325
aI477
aI573
aI588
aI629
aI681
aI897
aI942
aa(lp155
I15
aI112
aI192
aI198
aI352
aI361
aI413
aI445
aI707
aa(lp156
I26
aI74
aI124
aI138
aI143
aI166
aI271
aI322
aI373
aI582
aI650
aI770
aa(lp157
I90
aI206
aI269
aI286
aI332
aI368
aI404
aI565
aI712
aI926
aa(lp158
I80
aI143
aI283
aI337
aI407
aI581
aI803
aI873
aI894
aI919
aI994
aa(lp159
I53
aI177
aI366
aI426
aI431
aI516
aI635
aI708
aI766
aI909
aI923
aI997
aa(lp160
I187
aI352
aI460
aI471
aI592
aI777
aI927
aa(lp161
I78
aI169
aI354
aI434
aI643
aI651
aI772
aI850
aa(lp162
I126
aI366
aI370
aI436
aI502
aI551
aI583
aI675
aI684
aI753
aI816
aa(lp163
I0
aI63
aI88
aI90
aI174
aI221
aI249
aI521
aI632
aI824
aI953
aI993
aa(lp164
I60
aI435
aI458
aI487
aI558
aI590
aI653
aI761
aI877
aI936
aa(lp165
I127
aI237
aI427
aI646
aI768
aI802
aa(lp166
I167
aI582
aI634
aI661
aI673
aI756
aI766
aI874
aa(lp167
I28
aI34
aI40
aI55
aI71
aI104
aI193
aI416
aI488
aI648
aI789
aI839
aI980
aa(lp168
I5
aI48
aI137
aI145
aI187
aI467
aI486
aI545
aI557
aI659
aI753
aa(lp169
I93
aI265
aI270
aI395
aI584
aI716
aI764
aI808
aI872
aa(lp170
I1
aI322
aI452
aI668
aI692
aI987
aa(lp171
I31
aI195
aI232
aI259
aI284
aI316
aI720
aI864
aI888
aa(lp172
I510
aI522
aI531
aI597
aI654
aI723
aI781
aI818
aa(lp173
I50
aI337
aI493
aI610
aI835
aa(lp174
I14
aI56
aI66
aI263
aI421
aI604
aI774
aI783
aI852
aI877
aI882
aI920
aI921
aI975
aa(lp175
I27
aI112
aI113
aI122
aI134
aI268
aI338
aI722
aa(lp176
I189
aI210
aI328
aI409
aI429
aI487
aI500
aI618
aI643
aI659
aI955
aa(lp177
I28
aI232
aI339
aI550
aI594
aI596
aI915
aI961
aa(lp178
I339
aI710
aI751
aI778
aI850
aI920
aI955
aa(lp179
I36
aI104
aI199
aI233
aI242
aI623
aI679
aI904
aa(lp180
I18
aI75
aI76
aI213
aI374
aI499
aI527
aI538
aI552
aI567
aI646
aI743
aI769
aI805
aa(lp181
I95
aI132
aI273
aI335
aI414
aI444
aI604
aI618
aI721
aI805
aI840
aI874
aI880
aa(lp182
I76
aI114
aI141
aI164
aI234
aI302
aI478
aI587
aI846
aI847
aa(lp183
I42
aI111
aI256
aI305
aI394
aI472
aI515
aI715
aI733
aI781
aI807
aI933
aI936
aI975
aI991
aa(lp184
I113
aI507
aI509
aI552
aI611
aI626
aI831
aI930
aa(lp185
I0
aI21
aI461
aI470
aI515
aI717
aI959
aI963
aa(lp186
I26
aI355
aI466
aI587
aI735
aI807
aI822
aI997
aa(lp187
I149
aI188
aI209
aI382
aI483
aI498
aI660
aI700
aI877
aI895
aa(lp188
I60
aI379
aI424
aI535
aI576
aI682
aI724
aI989
aa(lp189
I38
aI128
aI243
aI262
aI400
aI491
aI650
aI756
aI775
aI985
aI986
aa(lp190
I77
aI94
aI200
aI504
aI690
aI703
aI744
aI952
aa(lp191
I180
aI368
aI581
aI626
aI641
aI643
aI649
aI660
aI664
aI685
aI715
aI755
aI831
aa(lp192
I112
aI113
aI124
aI152
aI183
aI452
aI493
aI601
aI658
aI678
aI686
aI700
aI760
aI799
aI979
aI999
aa(lp193
I316
aI424
aI591
aI644
aI679
aI706
aI741
aI849
aI966
aa(lp194
I30
aI38
aI95
aI147
aI150
aI281
aI352
aI640
aI757
aI771
aI837
aI898
aI934
aI988
aa(lp195
I31
aI281
aI438
aI499
aI967
aI998
aa(lp196
I14
aI33
aI64
aI244
aI309
aI589
aI863
aI900
aI921
aI936
aI978
aI999
aa(lp197
I40
aI139
aI359
aI417
aI425
aI499
aI506
aI520
aI679
aI743
aI765
aI767
aa(lp198
I47
aI207
aI243
aI289
aI738
aI747
aI992
aa(lp199
I138
aI412
aI456
aI544
aI819
aI825
aI908
aI922
aI957
aa(lp200
I18
aI71
aI134
aI250
aI314
aI543
aI824
aI872
aa(lp201
I29
aI95
aI142
aI253
aI267
aI319
aI333
aI336
aI385
aI514
aI566
aI718
aI735
aI877
aI895
aa(lp202
I359
aI405
aI444
aI575
aI607
aI664
aI783
aI965
aa(lp203
I1
aI54
aI63
aI129
aI288
aI368
aI437
aI620
aI723
aI740
aI852
aI859
aI924
aa(lp204
I20
aI125
aI280
aI356
aI472
aI602
aI663
aI737
aI815
aI957
aa(lp205
I1
aI245
aI512
aI675
aI796
aI805
aI817
aI925
aa(lp206
I1
aI11
aI44
aI80
aI167
aI428
aI494
aI587
aI662
aI678
aI783
aI973
aa(lp207
I3
aI106
aI127
aI133
aI251
aI383
aI684
aI819
aI874
aI912
aI927
aa(lp208
I42
aI100
aI355
aI392
aI537
aI655
aI923
aa(lp209
I107
aI112
aI209
aI389
aI438
aI469
aI586
aI902
aa(lp210
I79
aI88
aI124
aI167
aI213
aI505
aI640
aI739
aI764
aI925
aI973
aa(lp211
I65
aI84
aI193
aI213
aI316
aI342
aI687
aI748
aI814
aI860
aI970
aa(lp212
I141
aI475
aI529
aI617
aI811
aI871
aI905
aI934
aI942
aa(lp213
I52
aI168
aI194
aI577
aI648
aI675
aI691
aI728
aI848
aa(lp214
I120
aI229
aI240
aI365
aI582
aI594
aI662
aI766
aI797
aI864
aI878
aI980
aa(lp215
I270
aI277
aI291
aI551
aI561
aI698
aI863
aa(lp216
I22
aI53
aI144
aI254
aI348
aI350
aI476
aI642
aI687
aI694
aI815
aI874
aa(lp217
I21
aI51
aI83
aI288
aI294
aI298
aI334
aI477
aI516
aI623
aI629
aI676
aI697
aI815
aa(lp218
I9
aI31
aI126
aI148
aI257
aI311
aI355
aI369
aI403
aI426
aI445
aI454
aI479
aI510
aI586
aI769
aI947
aI973
aa(lp219
I45
aI128
aI195
aI461
aI574
aI708
aI710
aI713
aI921
aI933
aa(lp220
I31
aI306
aI618
aI898
aI971
aa(lp221
I36
aI57
aI74
aI134
aI342
aI390
aI519
aa(lp222
I103
aI443
aI544
aI883
aI887
aI940
aI961
aI964
aI968
aa(lp223
I135
aI168
aI209
aI358
aI522
aI714
aa(lp224
I34
aI76
aI92
aI149
aI252
aI530
aI806
aa(lp225
I25
aI240
aI315
aI396
aI515
aI802
aI816
aI913
aa(lp226
I220
aI299
aI503
aI639
aI646
aI765
aI797
aI816
aI926
aa(lp227
I42
aI183
aI184
aI217
aI335
aI354
aI436
aI636
aI767
aI783
aI849
aI911
aI977
aa(lp228
I152
aI382
aI396
aI481
aI508
aI580
aI601
aI604
aI983
aa(lp229
I246
aI302
aI311
aI387
aI396
aI519
aI549
aI571
aI678
aI771
aI855
aa(lp230
I390
aI440
aI445
aI542
aI543
aI577
aI642
aI798
aI807
aI915
aI943
aa(lp231
I80
aI94
aI303
aI384
aI416
aI543
aI646
aI776
aI905
aI928
aI976
aa(lp232
I209
aI343
aI405
aI410
aI611
aI790
aI806
aI824
aI915
aI992
aa(lp233
I331
aI453
aI479
aI521
aI780
aI886
aa(lp234
I107
aI352
aI357
aI404
aI860
aa(lp235
I5
aI8
aI90
aI156
aI285
aI516
aI740
aI875
aI894
aI943
aa(lp236
I7
aI9
aI135
aI141
aI196
aI344
aI902
aI926
aI927
aI987
aa(lp237
I83
aI427
aI437
aI523
aI719
aI903
aa(lp238
I92
aI285
aI441
aI521
aI544
aI594
aI698
aI705
aI821
aa(lp239
I35
aI91
aI131
aI241
aI318
aI391
aI677
aI689
aI719
aa(lp240
I54
aI194
aI234
aI379
aI467
aI752
aI844
aI896
aI934
aI944
aa(lp241
I122
aI201
aI700
aI777
aI860
aI885
aI961
aI999
aa(lp242
I38
aI202
aI249
aI470
aI533
aI569
aI646
aI699
aI857
aa(lp243
I143
aI147
aI150
aI230
aI319
aI379
aI463
aI558
aI614
aI662
aI740
aI770
aI808
aI844
aI854
aI974
aa(lp244
I88
aI106
aI188
aI280
aI305
aI458
aI733
aI755
aI801
aI883
aI918
aI967
aa(lp245
I38
aI142
aI190
aI337
aI436
aI546
aI560
aI771
aI843
aI874
aa(lp246
I268
aI344
aI653
aI715
aI772
aI911
aa(lp247
I5
aI6
aI135
aI185
aI259
aI340
aI420
aI545
aI666
aI699
aI965
aa(lp248
I155
aI422
aI659
aI704
aI796
aI852
aI958
aa(lp249
I199
aI482
aI498
aI568
aI578
aI600
aI602
aI658
aI833
aa(lp250
I3
aI109
aI125
aI320
aI345
aI509
aI518
aI667
aI688
aI853
aI981
aa(lp251
I20
aI90
aI152
aI153
aI223
aI260
aI273
aI275
aI404
aI433
aI474
aI523
aI580
aI670
aI693
aI746
aI794
aI836
aI940
aI960
aa(lp252
I419
aI506
aI605
aI709
aI812
aI972
aa(lp253
I17
aI53
aI90
aI243
aI324
aI330
aI373
aI460
aI576
aI662
aI770
aI798
aI836
aI866
aI925
aI980
aa(lp254
I3
aI81
aI194
aI364
aI397
aI466
aI469
aI529
aI669
aI679
aI716
aI780
aI816
aa(lp255
I118
aI257
aI258
aI377
aI395
aI538
aI559
aI710
aI793
aI935
aa(lp256
I140
aI228
aI274
aI299
aI368
aI429
aI462
aI566
aI579
aI633
aI707
aI776
aI795
aI915
aI997
aa(lp257
I7
aI30
aI220
aI249
aI326
aI433
aI512
aI571
aI719
aI837
aI926
aI972
aa(lp258
I36
aI51
aI134
aI256
aI841
aa(lp259
I45
aI88
aI241
aI267
aI556
aI599
aI795
aI854
aa(lp260
I521
aI574
aI579
aI604
aI738
aa(lp261
I265
aI450
aI620
aI657
aI894
aI949
aI957
aa(lp262
I73
aI105
aI129
aI145
aI165
aI373
aI491
aI505
aI555
aI638
aI640
aI709
aI823
aI831
aa(lp263
I237
aI304
aI661
aa(lp264
I245
aI280
aI386
aI429
aI548
aI601
aI823
aI824
aI849
aI919
aI920
aa(lp265
I34
aI41
aI43
aI71
aI99
aI155
aI201
aI250
aI358
aI410
aI452
aI478
aI499
aI615
aI678
aI693
aI742
aI941
aI951
aI994
aa(lp266
I70
aI209
aI258
aI465
aI505
aI679
aI745
aI823
aI989
aa(lp267
I108
aI277
aI283
aI327
aI328
aI485
aI526
aI817
aI876
aa(lp268
I233
aI273
aI285
aI319
aI404
aI597
aI604
aI658
aI731
aI750
aI852
aI943
aa(lp269
I45
aI172
aI247
aI324
aI381
aI401
aI437
aI541
aI830
aa(lp270
I114
aI301
aI313
aI348
aI380
aI533
aI548
aI650
aI715
aI852
aI900
aI932
aa(lp271
I134
aI243
aI285
aI390
aI417
aI438
aI464
aI480
aI488
aI557
aI644
aI695
aI831
aa(lp272
I20
aI83
aI121
aI141
aI400
aI445
aI666
aI672
aI841
aI978
aa(lp273
I78
aI253
aI336
aI414
aI461
aI462
aI479
aI487
aI626
aI641
aI786
aI824
aI835
aa(lp274
I90
aI115
aI121
aI190
aI367
aI396
aI439
aI505
aI642
aI843
aI948
aI951
aa(lp275
I8
aI198
aI264
aI322
aI356
aI481
aI622
aI711
aI926
aa(lp276
I73
aI241
aI299
aI339
aI395
aI400
aI596
aI625
aI947
aI957
aI968
aa(lp277
I20
aI95
aI143
aI246
aI531
aI606
aI609
aI701
aI843
aI857
aI976
aa(lp278
I27
aI224
aI257
aI276
aI531
aI628
aI711
aI749
aI777
aI913
aa(lp279
I61
aI182
aI334
aI379
aI631
aI665
aI674
aI767
aI817
aa(lp280
I53
aI251
aI503
aI579
aI797
aa(lp281
I47
aI65
aI160
aI202
aI225
aI241
aI302
aI304
aI327
aI330
aI389
aI409
aI424
aI622
aI833
aa(lp282
I160
aI196
aI260
aI280
aI420
aI574
aI752
aI761
aI774
aI889
aI901
aI940
aI944
aa(lp283
I372
aI390
aI462
aI560
aI624
aI719
aI746
aI986
aa(lp284
I38
aI70
aI120
aI566
aI603
aI756
aI789
aI921
aa(lp285
I90
aI361
aI623
aI801
aI836
aI911
aa(lp286
I23
aI327
aI425
aI544
aI559
aI846
aI877
aa(lp287
I392
aI490
aI514
aI570
aI683
aI990
aa(lp288
I52
aI189
aI215
aI295
aI366
aI392
aI493
aI544
aI561
aI732
aI930
aa(lp289
I108
aI176
aI327
aI348
aI573
aI899
aa(lp290
I42
aI115
aI118
aI161
aI171
aI366
aI373
aI376
aI751
aI888
aI997
aa(lp291
I12
aI322
aI362
aI412
aI592
aI758
aI791
aI829
aa(lp292
I2
aI182
aI324
aI653
aI662
aI779
aa(lp293
I3
aI4
aI80
aI103
aI215
aI227
aI367
aI402
aI434
aI507
aI564
aI569
aI683
aI838
aa(lp294
I177
aI401
aI407
aI617
aI660
aI763
aI806
aI813
aI903
aa(lp295
I14
aI22
aI62
aI262
aI647
aI650
aI676
aI748
aI837
aI855
aI997
aa(lp296
I23
aI58
aI140
aI849
aI885
aI902
aa(lp297
I12
aI67
aI81
aI180
aI271
aI306
aI520
aI810
aI835
aI938
aa(lp298
I146
aI147
aI552
aI560
aI562
aI875
aa(lp299
I19
aI20
aI29
aI151
aI390
aI506
aI516
aI782
aI799
aI832
aI957
aa(lp300
I429
aa(lp301
I502
aI532
aI643
aI728
aa(lp302
I173
aI230
aI232
aI304
aI382
aI396
aI507
aI857
aI882
aa(lp303
I211
aI309
aI423
aI458
aI658
aI699
aI886
aa(lp304
I94
aI217
aI258
aI277
aI285
aI572
aI630
aI635
aI637
aI786
aI844
aa(lp305
I185
aI225
aI297
aI322
aI324
aI497
aI591
aI689
aI805
aI865
aa(lp306
I463
aI675
aI696
aI704
aI705
aI847
aI923
aa(lp307
I96
aI199
aI412
aI485
aI699
aI779
aI820
aI841
aI936
aa(lp308
I4
aI144
aI186
aI235
aI264
aI314
aI341
aI577
aI594
aI647
aI666
aI816
aI842
aI989
aI991
aa(lp309
I99
aI325
aI364
aI439
aI476
aI499
aI501
aI617
aI738
aI767
aI841
aI896
aI978
aa(lp310
I62
aI79
aI132
aI233
aI266
aI361
aI469
aI525
aI598
aI615
aI692
aI751
aI773
aI790
aa(lp311
I67
aI137
aI282
aI458
aI610
aI619
aI646
aI668
aI720
aI777
aa(lp312
I48
aI67
aI80
aI242
aI250
aI305
aI351
aI376
aI430
aI499
aI764
aI771
aI781
aI988
aa(lp313
I94
aI225
aI420
aI457
aI501
aI564
aI594
aI627
aI745
aI898
aI935
aa(lp314
I4
aI59
aI88
aI370
aI380
aI418
aI441
aI524
aI721
aI827
aI911
aa(lp315
I42
aI51
aI69
aI152
aI339
aI406
aI433
aI524
aI525
aI546
aI765
aa(lp316
I44
aI211
aI240
aI258
aI261
aI298
aI311
aI340
aI394
aI415
aI501
aI635
aI764
aI900
aI902
aI979
aa(lp317
I143
aI168
aI254
aI359
aI360
aI402
aI519
aI521
aI864
aI929
aa(lp318
I311
aI412
aI469
aI483
aI551
aI652
aI763
aI866
aa(lp319
I160
aI174
aI181
aI260
aI285
aI332
aI558
aI568
aI612
aI671
aI689
aI696
aI732
aI866
aI919
aa(lp320
I16
aI18
aI95
aI383
aI536
aI542
aI844
aI847
aI887
aI981
aI997
aa(lp321
I123
aI209
aI242
aI436
aI533
aI540
aI602
aI674
aI766
aI922
aI942
aa(lp322
I104
aI144
aI226
aI408
aI458
aI462
aI594
aI645
aI696
aI776
aI930
aa(lp323
I260
aI330
aI493
aI542
aI619
aI665
aI678
aI956
aa(lp324
I20
aI129
aI219
aI347
aI457
aI517
aI667
aI921
aI933
aI959
aa(lp325
I286
aI453
aI819
aa(lp326
I83
aI261
aI285
aI410
aI450
aI515
aI516
aI759
aI856
aI877
aa(lp327
I162
aI234
aI486
aI583
aI592
aa(lp328
I271
aI282
aI319
aI510
aI623
aI648
aI760
aI765
aI947
aa(lp329
I43
aI284
aI483
aI529
aI564
aI589
aI695
aI709
aI734
aI835
aI893
aI906
aI907
aa(lp330
I159
aI424
aI757
aI856
aa(lp331
I216
aI596
aI740
aI759
aa(lp332
I11
aI103
aI148
aI164
aI468
aI519
aI899
aa(lp333
I29
aI38
aI90
aI435
aI477
aI569
aI710
aI731
aI738
aI769
aI791
aI809
aI868
aI930
aI952
aa(lp334
I53
aI234
aI418
aI428
aI699
aI764
aI812
aI829
aI977
aa(lp335
I331
aa(lp336
I2
aI91
aI222
aI352
aI454
aI686
aI726
aI762
aI837
aI889
aI934
aa(lp337
I115
aI125
aI256
aI473
aI526
aI636
aI642
aI652
aI775
aI928
aa(lp338
I33
aI139
aI162
aI216
aI253
aI303
aI327
aI363
aI444
aI591
aI714
aI833
aI949
aI987
aa(lp339
I204
aI281
aI284
aI323
aI328
aI373
aI559
aI824
aI855
aI884
aa(lp340
I111
aI118
aI168
aI284
aI345
aI364
aI397
aI409
aI671
aI812
aI985
aa(lp341
I169
aI216
aI244
aI327
aI434
aI686
aI860
aI899
aa(lp342
I335
aa(lp343
I28
aI59
aI313
aI388
aI423
aI469
aI528
aI555
aI585
aI632
aI667
aI683
aI704
aa(lp344
I235
aI403
aI545
aI598
aI714
aI939
aa(lp345
I16
aI35
aI111
aI248
aI604
aI614
aI750
aI800
aI851
aI966
aI991
aa(lp346
I128
aI155
aI281
aI297
aI592
aI613
aI686
aI746
aI853
aI974
aa(lp347
I29
aI120
aI185
aI349
aI389
aI427
aI743
aI972
aa(lp348
I229
aI498
aI551
aI554
aI730
aI735
aI943
aI956
aa(lp349
I144
aI152
aI485
aI811
aI933
aa(lp350
I50
aI96
aI172
aI200
aI289
aI389
aI448
aI451
aI477
aI514
aI571
aI676
aI974
aa(lp351
I148
aI156
aI362
aI424
aI503
aI523
aI534
aI617
aI653
aI741
aI748
aI897
aI916
aI947
aI972
aa(lp352
I114
aI317
aI338
aI428
aI958
aa(lp353
I18
aI77
aI191
aI663
aI767
aI834
aI842
aI882
aI927
aa(lp354
I44
aI64
aI151
aI172
aI346
aI654
aa(lp355
I122
aI171
aI358
aI380
aI562
aI691
aI718
aI721
aI961
aa(lp356
I69
aI190
aI213
aI336
aI477
aI487
aI752
aI797
aI936
aa(lp357
I75
aI132
aI280
aI305
aI316
aI416
aI455
aI535
aI642
aI698
aI801
aI813
aI829
aI877
aa(lp358
I130
aI131
aI148
aI165
aI389
aI415
aI568
aI598
aI628
aI772
aI798
aI937
aa(lp359
I9
aI53
aI66
aI88
aI108
aI136
aI152
aI343
aI416
aI912
aa(lp360
I60
aI139
aI177
aI273
aI472
aI490
aI659
aI674
aI817
aI827
aI904
aI954
aI958
aa(lp361
I36
aI195
aI363
aI549
aI729
aI893
aI898
aa(lp362
I90
aI181
aI298
aI318
aI407
aI563
aI691
aI706
aa(lp363
I185
aI204
aI258
aI263
aI626
aI707
aI722
aI757
aI800
aI944
aa(lp364
I16
aI96
aI166
aI284
aI339
aI362
aI432
aI459
aI494
aI600
aI616
aI679
aa(lp365
I16
aI107
aI116
aI135
aI206
aI232
aI289
aI321
aI437
aI526
aI633
aa(lp366
I61
aI213
aI258
aI367
aI547
aI722
aI727
aI746
aI822
aa(lp367
I332
aI419
aI454
aI582
aI830
aI843
aI857
aI919
aI944
aI973
aa(lp368
I361
aI375
aI550
aI596
aI640
aI660
aI742
aI761
aI854
aI987
aa(lp369
I65
aI71
aI169
aI327
aI388
aI528
aI627
aI637
aI739
aa(lp370
I168
aI307
aI343
aI400
aI492
aI538
aI651
aI680
aI754
aI805
aI900
aI932
aa(lp371
I75
aI251
aI344
aI487
aI553
aI554
aI634
aI768
aI776
aI827
aI834
aI855
aI871
aI905
aI975
aa(lp372
I133
aI185
aI216
aI247
aI307
aI432
aI576
aI671
aI745
aI831
aI867
aI868
aI973
aI993
aa(lp373
I19
aI62
aI65
aI114
aI175
aI185
aI294
aI396
aI551
aI671
aI858
aI889
aI941
aI980
aI997
aa(lp374
I230
aI675
aI787
aa(lp375
I118
aI289
aI352
aI495
aI546
aI560
aI600
aI684
aI691
aI699
aI706
aI845
aI950
aI980
aa(lp376
I161
aI162
aI310
aI448
aI519
aI547
aI647
aI702
aI939
aa(lp377
I277
aI278
aI319
aI348
aI508
aI546
aI777
aI799
aI813
aI836
aI875
aI928
aI945
aa(lp378
I83
aI160
aI197
aI223
aI235
aI255
aI319
aI368
aI402
aI515
aI816
aa(lp379
I69
aI286
aI377
aI426
aI490
aI783
aI848
aI933
aI946
aa(lp380
I165
aI211
aI246
aI474
aI671
aI703
aI720
aI885
aI997
aa(lp381
I70
aI155
aI228
aI270
aI321
aI526
aI634
aI693
aI760
aI771
aI852
aI880
aa(lp382
I40
aI60
aI87
aI133
aI198
aI273
aI433
aI490
aI517
aI614
aI652
aI772
aI822
aI834
aI963
aa(lp383
I333
aI381
aI417
aI485
aI697
aI730
aI906
aI909
aI917
aI934
aI949
aI985
aa(lp384
I4
aI25
aI95
aI158
aI166
aI630
aI706
aa(lp385
I87
aI239
aI244
aI404
aI409
aI420
aI423
aI453
aI717
aI798
aI868
aI921
aI954
aa(lp386
I34
aI206
aI343
aI461
aI500
aI717
aI868
aa(lp387
I18
aI230
aI303
aI484
aI754
aI917
aa(lp388
I221
aI439
aI509
aI516
aI549
aI820
aI870
aa(lp389
I29
aI33
aI118
aI135
aI309
aI586
aI741
aI748
aI848
aI904
aI978
aa(lp390
I68
aI86
aI102
aI252
aI354
aI439
aI509
aI622
aI988
aa(lp391
I182
aI230
aI345
aI615
aI686
aI880
aI985
aa(lp392
I53
aI228
aI313
aI757
aI862
aI973
aI996
aa(lp393
I100
aI525
aI526
aI535
aI663
aI676
aI931
aa(lp394
I163
aI316
aI346
aI380
aI446
aI460
aI544
aI574
aI718
aI912
aI956
aI988
aa(lp395
I104
aI116
aI609
aI663
aI773
aI791
aa(lp396
I127
aI372
aI389
aI461
aI507
aI556
aI614
aI824
aI939
aI945
aa(lp397
I179
aI222
aI347
aI408
aI437
aI763
aI819
aa(lp398
I63
aI81
aI155
aI258
aI266
aI279
aI320
aI457
aI516
aI549
aI837
aI908
aa(lp399
I130
aI230
aI487
aI738
aI748
aI794
aI923
aI959
aI983
aa(lp400
I67
aI145
aI213
aI214
aI248
aI314
aI315
aI338
aI434
aI499
aI728
aI847
aI999
aa(lp401
I5
aI67
aI276
aI636
aI652
aI817
aI819
aI961
aI977
aa(lp402
I40
aI58
aI124
aI162
aI376
aI458
aI557
aI626
aI696
aI715
aI773
aI976
aa(lp403
I94
aI97
aI129
aI150
aI169
aI262
aI382
aI433
aI434
aI508
aI536
aI562
aI667
aI699
aI760
aI804
aa(lp404
I176
aI186
aI240
aI296
aI402
aI491
aI508
aI530
aI801
aI842
aI970
aI982
aa(lp405
I223
aI253
aI275
aI278
aI376
aI393
aI511
aI563
aI661
aI672
aI677
aI679
aI755
aI817
aI875
aI915
aa(lp406
I57
aI167
aI242
aI301
aI308
aI337
aI382
aI384
aI463
aI704
aI769
aI785
aI868
aI904
aI982
aa(lp407
I10
aI158
aI301
aI454
aI646
aI665
aI781
aa(lp408
I42
aI83
aI228
aI707
aI731
aI740
aI875
aI966
aa(lp409
I71
aI179
aI211
aI222
aI310
aI343
aI429
aI697
aI791
aI793
aI835
aI856
aI932
aa(lp410
I5
aI22
aI28
aI76
aI150
aI173
aI184
aI261
aI327
aI371
aI425
aI493
aI726
aI866
aI883
aI989
aa(lp411
I22
aI26
aI107
aI249
aI323
aI366
aI447
aI497
aI583
aI705
aI772
aa(lp412
I155
aI451
aI512
aI568
aI584
aI594
aI744
aI996
aa(lp413
I133
aI195
aI208
aI215
aI403
aI420
aI615
aI898
aI924
aa(lp414
I33
aI194
aI231
aI251
aI277
aI492
aI514
aI569
aI633
aI898
aa(lp415
I127
aI304
aI501
aI610
aa(lp416
I48
aI158
aI426
aI771
aI827
aa(lp417
I123
aI242
aI251
aI530
aI720
aI744
aI822
aI855
aI905
aI959
aa(lp418
I33
aI72
aI203
aI248
aI269
aI351
aI359
aI415
aI436
aI465
aI578
aI794
aI815
aI820
aI919
aa(lp419
I76
aI88
aI115
aI445
aI447
aI450
aI479
aI525
aI554
aI588
aI631
aI846
aI906
aI997
aa(lp420
I21
aI204
aI218
aI344
aI864
aa(lp421
I20
aI32
aI309
aI373
aI438
aI477
aI705
aI740
aI831
aI832
aI994
aa(lp422
I120
aI284
aI350
aI389
aI460
aI922
aa(lp423
I70
aI177
aI271
aI282
aI298
aI306
aI354
aI369
aI373
aI570
aI973
aa(lp424
I6
aI322
aI394
aI467
aI535
aI684
aa(lp425
I83
aI135
aI201
aI240
aI242
aI299
aI333
aI520
aI566
aI581
aI643
aI731
aI896
aI923
aa(lp426
I31
aI120
aI143
aI213
aI262
aI326
aI387
aI563
aI612
aI613
aI690
aI826
aI918
aa(lp427
I369
aI431
aI708
aa(lp428
I194
aI473
aI550
aI627
aI638
aI649
aa(lp429
I55
aI194
aI241
aI323
aI332
aI447
aI472
aI626
aI657
aI756
aI857
aa(lp430
I153
aI329
aI520
aI640
aI754
aI844
aI933
aI998
aa(lp431
I82
aI195
aI228
aI229
aI238
aI321
aI403
aI564
aI648
aI665
aI692
aI764
aI781
aI878
aI909
aI955
aI975
aI979
aI987
aa(lp432
I128
aI475
aI588
aI597
aI623
aI864
aI936
aa(lp433
I5
aI8
aI64
aI123
aI236
aI254
aI260
aI549
aI680
aI681
aI697
aI725
aI762
aI815
aa(lp434
I99
aI160
aI869
aa(lp435
I65
aI137
aI272
aI290
aI330
aI506
aI628
aI809
aa(lp436
I99
aI158
aI186
aI246
aI466
aI576
aI773
aa(lp437
I25
aI173
aI641
aI832
aI940
aa(lp438
I56
aI181
aI251
aI407
aI473
aI514
aI640
aI676
aI772
aI819
aI941
aI958
aa(lp439
I148
aI167
aI285
aI291
aI307
aI368
aI394
aI720
aI883
aI951
aa(lp440
I225
aI239
aI490
aI499
aI518
aI528
aI975
aa(lp441
I203
aI290
aI326
aI647
aI664
aI729
aI741
aI801
aI884
aI944
aa(lp442
I120
aI179
aI316
aI323
aI614
aI654
aI784
aI923
aI978
aa(lp443
I433
aI600
aI753
aI889
aa(lp444
I85
aI146
aI197
aI206
aI239
aI258
aI314
aI684
aI717
aI772
aa(lp445
I37
aI47
aI218
aI259
aI266
aI334
aI375
aI478
aI527
aI864
aa(lp446
I13
aI33
aI68
aI303
aI312
aI320
aI360
aI552
aI557
aI671
aI750
aI797
aI951
aa(lp447
I218
aI252
aI255
aI486
aI539
aI639
aI837
aa(lp448
I126
aI237
aI363
aI460
aI500
aI627
aI864
aI900
aa(lp449
I22
aI136
aI256
aI623
aI638
aI898
aI908
aI931
aI972
aa(lp450
I23
aI26
aI257
aI295
aI403
aI433
aI494
aI537
aI558
aI583
aI898
aI903
aI998
aa(lp451
I182
aI363
aI437
aI442
aI451
aI474
aI700
aa(lp452
I10
aI45
aI47
aI123
aI307
aI312
aI362
aI443
aI494
aI604
aI689
aI706
aI884
aI886
aI952
aa(lp453
I217
aI281
aI437
aI655
aI661
aI683
aa(lp454
I41
aI120
aI202
aI216
aI228
aI458
aI538
aI619
aI871
aa(lp455
I66
aI142
aI148
aI326
aI600
aI677
aI690
aa(lp456
I102
aI196
aI328
aI331
aI359
aI472
aI512
aI588
aI627
aI677
aI678
aI732
aI741
aI906
aa(lp457
I18
aI77
aI156
aI255
aI417
aI553
aI828
aI868
aI920
aI948
aa(lp458
I35
aI289
aI303
aI648
aI706
aI737
aI912
aI927
aI930
aI966
aI992
aa(lp459
I59
aI88
aI250
aI322
aI325
aI343
aI783
aI884
aa(lp460
I13
aI88
aI290
aI349
aI564
aI719
aI826
aI922
aa(lp461
I9
aI15
aI48
aI95
aI107
aI200
aI464
aI519
aI540
aI846
aI969
aa(lp462
I66
aI101
aI397
aI402
aI492
aI527
aI605
aI647
aI661
aI713
aI721
aI733
aI834
aI839
aI861
aI901
aI922
aI971
aa(lp463
I129
aI174
aI248
aI379
aI480
aI498
aI525
aI556
aI709
aI730
aI735
aI747
aI771
aa(lp464
I49
aI171
aI251
aI400
aI406
aI457
aI587
aI597
aI648
aI656
aI680
aI759
aI828
aI953
aa(lp465
I42
aI77
aI142
aI276
aI394
aI416
aI682
aI733
aI813
aI840
aI856
aI901
aI939
aa(lp466
I35
aI328
aI351
aI413
aI415
aI643
aI685
aI783
aI851
aI873
aI949
aa(lp467
I63
aI78
aI207
aI307
aI339
aI351
aI422
aI490
aI494
aI926
aa(lp468
I33
aI59
aI125
aI372
aI475
aI502
aI514
aI679
aI708
aI775
aI806
aI855
aa(lp469
I14
aI90
aI197
aI313
aI359
aI380
aI512
aI514
aI524
aI685
aI845
aI861
aI919
aI999
aa(lp470
I39
aI143
aI231
aI279
aI426
aI448
aI486
aI620
aI658
aa(lp471
I64
aI121
aI397
aI896
aI912
aa(lp472
I37
aI49
aI108
aI362
aI685
aI731
aI828
aI910
aI995
aa(lp473
I163
aI265
aI290
aI291
aI342
aI362
aI415
aI470
aI477
aI604
aI741
aI742
aI810
aI842
aI885
aI887
aI890
aI895
aI924
aa(lp474
I2
aI67
aI86
aI156
aI214
aI669
aI688
aI717
aI762
aI821
aI834
aI864
aI948
aa(lp475
I50
aI179
aI203
aI401
aI484
aI621
aI704
aI734
aI926
aa(lp476
I64
aI75
aI106
aI187
aI215
aI456
aI652
aI654
aI663
aI824
aI929
aa(lp477
I2
aI48
aI131
aI166
aI219
aI282
aI456
aI472
aI563
aI598
aI667
aI732
aI792
aI888
aa(lp478
I79
aI177
aI184
aI269
aI341
aI450
aI462
aI654
aI690
aI751
aI762
aI779
aI909
aI994
aa(lp479
I32
aI115
aI136
aI177
aI283
aI614
aI643
aI716
aI748
aI998
aa(lp480
I83
aI144
aI186
aI456
aI556
aI563
aI571
aI574
aI620
aI914
aa(lp481
I141
aI158
aI163
aI179
aI830
aI934
aa(lp482
I8
aI32
aI34
aI51
aI54
aI110
aI128
aI160
aI226
aI368
aI855
aI893
aI950
aI960
aI972
aI980
aI998
aa(lp483
I82
aI229
aI234
aI266
aI302
aI572
aI589
aI725
aI777
aa(lp484
I109
aI156
aI203
aI330
aI429
aI705
aI706
aI824
aI836
aa(lp485
I410
aI426
aI914
aa(lp486
I17
aI262
aI443
aI541
aI617
aI666
aI731
aI733
aI799
aI900
aI918
aa(lp487
I84
aI334
aI362
aI664
aI836
aa(lp488
I111
aI161
aI171
aI172
aI329
aI367
aI499
aI607
aa(lp489
I40
aI265
aI387
aI562
aI598
aI636
aI697
aI724
aI900
aI901
aI978
aa(lp490
I163
aI249
aI500
aI511
aI550
aI588
aI766
aI770
aI826
aI834
aI891
aI939
aa(lp491
I160
aI190
aI195
aI245
aI254
aI299
aI453
aI462
aI473
aI561
aI798
aI877
aI962
aa(lp492
I368
aI453
aI527
aI540
aI629
aI640
aI797
aI857
aI946
aa(lp493
I49
aI116
aI380
aI475
aI626
aI687
aI778
aa(lp494
I73
aI86
aI96
aI219
aI291
aI294
aI331
aI371
aI433
aI503
aI542
aI734
aI753
aI814
aa(lp495
I82
aI156
aI160
aI205
aI280
aI351
aI407
aI477
aI688
aI983
aa(lp496
I146
aI163
aI172
aI195
aI465
aI475
aI533
aI550
aI748
aI883
aI914
aI977
aI993
aa(lp497
I45
aI103
aI318
aI320
aI444
aI607
aI636
aI688
aI696
aI771
aI802
aI957
aa(lp498
I210
aI327
aI331
aI394
aI529
aI696
aI737
aI763
aI919
aI962
aI970
aI976
aa(lp499
I74
aI237
aI440
aI495
aI546
aI893
aI983
aa(lp500
I185
aI208
aI350
aI363
aI440
aI536
aI648
aI864
aI956
aa(lp501
I121
aI162
aI186
aI230
aI382
aI383
aI657
aI764
aI790
aI814
aI838
aI840
aI844
aa(lp502
I29
aI65
aI115
aI141
aI191
aI321
aI367
aI416
aI536
aI548
aI691
aI762
aI786
aI841
aI961
aa(lp503
I8
aI101
aI124
aI272
aI301
aI325
aI419
aI477
aI674
aI695
aI780
aI841
aa(lp504
I70
aI202
aI279
aI329
aI481
aI650
aI891
aa(lp505
I7
aI18
aI62
aI201
aI251
aI395
aI409
aI465
aI488
aI536
aI620
aI731
aa(lp506
I58
aI175
aI181
aI227
aI230
aI316
aI423
aI542
aI551
aI716
aI924
aI928
aI990
aa(lp507
I302
aI316
aI438
aI556
aI605
aI759
aI764
aI940
aa(lp508
I11
aI39
aI114
aI142
aI304
aI553
aI657
aI694
aI819
aI857
aI982
aa(lp509
I259
aI276
aI395
aI426
aI456
aI644
aI933
aa(lp510
I269
aI480
aI533
aI548
aI550
aI571
aI652
aI805
aI818
aI911
aI927
aI986
aa(lp511
I102
aI121
aI143
aI509
aI661
aI695
aI827
aI958
aa(lp512
I48
aI144
aI151
aI171
aI216
aI244
aI380
aI590
aI715
aI888
aa(lp513
I53
aI63
aI191
aI254
aI331
aI392
aI678
aI857
aa(lp514
I61
aI92
aI191
aI237
aI345
aI424
aI454
aI606
aI672
aI810
aI819
aI820
aI849
aI881
aI940
aI978
aa(lp515
I69
aI200
aI387
aI450
aI894
aI917
aa(lp516
I84
aI161
aI272
aI540
aI727
aI847
aa(lp517
I10
aI190
aI419
aI615
aI730
aI745
aI761
aI861
aI975
aa(lp518
I94
aI183
aI229
aI252
aI278
aI319
aI548
aI705
aI909
aa(lp519
I15
aI21
aI244
aI648
aI653
aI746
aI882
aI957
aI980
aa(lp520
I13
aI264
aI323
aI591
aI615
aI853
aI872
aI979
aa(lp521
I102
aI107
aI148
aI287
aI322
aI559
aI589
aI798
aI865
aI911
aI922
aa(lp522
I17
aI41
aI52
aI259
aI350
aI674
aI921
aa(lp523
I114
aI288
aI507
aI525
aI567
aI589
aI959
aa(lp524
I33
aI87
aI185
aI241
aI257
aI369
aI473
aI714
aI721
aI723
aI781
aI913
aI915
aI931
aI994
aa(lp525
I26
aI40
aI43
aI107
aI131
aI301
aI407
aI577
aI626
aI701
aI852
aI910
aa(lp526
I198
aI553
aI562
aI594
aI813
aa(lp527
I2
aI137
aI234
aI264
aI278
aI305
aI360
aI375
aI494
aI623
aI721
aI724
aI819
aI888
aa(lp528
I118
aI225
aI242
aI275
aI290
aI418
aI448
aI592
aI660
aI871
aI900
aI911
aI943
aa(lp529
I120
aI214
aI323
aI363
aI379
aI541
aI601
aI606
aI658
aI702
aI964
aa(lp530
I59
aI328
aI399
aI460
aI640
aI650
aI672
aI720
aa(lp531
I104
aI111
aI118
aI226
aI269
aI283
aI434
aI493
aI498
aI862
aa(lp532
I4
aI12
aI142
aI212
aI445
aI666
aI740
aI747
aI868
aa(lp533
I62
aI75
aI113
aI127
aI134
aI136
aI241
aI568
aI762
aI792
aI978
aa(lp534
I4
aI94
aI96
aI223
aI550
aI555
aI994
aa(lp535
I50
aI315
aI334
aI345
aI382
aI459
aI515
aI643
aI649
aI679
aI948
aI960
aa(lp536
I11
aI136
aI222
aI239
aI324
aI332
aI511
aI561
aI695
aI855
aa(lp537
I130
aI219
aI385
aI571
aI747
aI903
aI999
aa(lp538
I12
aI32
aI213
aI509
aI610
aI776
aI842
aI860
aI880
aI894
aI916
aI984
aa(lp539
I175
aI198
aI775
aI907
aI918
aI988
aI990
aa(lp540
I171
aI235
aI276
aI369
aI412
aI609
aI667
aI861
aI867
aI878
aI994
aa(lp541
I66
aI68
aI199
aI288
aI436
aI453
aI458
aI462
aI635
aI710
aI813
aI847
aa(lp542
I168
aI344
aI524
aI582
aI686
aI694
aI749
aI958
aI998
aa(lp543
I368
aI369
aI422
aI448
aI511
aI698
aI867
aI962
aa(lp544
I46
aI65
aI111
aI133
aI149
aI455
aI735
aI948
aa(lp545
I112
aI167
aI176
aI407
aI449
aI503
aI658
aI686
aI803
aI924
aI933
aa(lp546
I70
aI82
aI164
aI201
aI205
aI317
aI350
aI498
aI627
aI632
aI680
aa(lp547
I190
aI215
aI251
aI265
aI295
aI391
aI572
aI664
aI677
aI923
aI955
aa(lp548
I168
aI325
aI670
aI835
aI967
aa(lp549
I2
aI201
aI214
aI220
aI291
aI302
aI358
aI484
aI534
aI746
aI998
aa(lp550
I50
aI73
aI113
aI401
aI446
aI511
aI615
aI617
aI696
aI846
aI874
aI958
aI965
aI977
aa(lp551
I18
aI154
aI403
aI411
aI423
aI531
aI543
aI683
aa(lp552
I219
aI303
aI363
aI550
aI853
aI864
aa(lp553
I138
aI225
aI233
aI377
aI512
aI535
aI684
aI737
aI747
aI889
aI891
aI989
aa(lp554
I16
aI25
aI65
aI460
aI537
aI729
aI907
aa(lp555
I76
aI199
aI354
aI387
aI427
aI558
aI629
aI729
aI794
aI968
aa(lp556
I583
aI608
aI664
aI681
aI764
aI840
aI849
aI943
aa(lp557
I81
aI104
aI150
aI290
aI342
aI400
aI413
aI452
aI498
aI502
aI931
aI994
aa(lp558
I127
aI137
aI169
aI172
aI239
aI312
aI385
aI848
aI875
aa(lp559
I253
aI276
aI288
aI374
aI443
aI705
aI967
aa(lp560
I21
aI172
aI224
aI298
aI480
aI524
aI525
aa(lp561
I28
aI128
aI205
aI210
aI326
aI330
aI480
aI568
aI585
aI595
aI663
aI683
aI692
aI810
aI891
aa(lp562
I56
aI98
aI113
aI150
aI202
aI489
aI508
aI601
aI712
aI734
aI844
aI961
aa(lp563
I35
aI62
aI139
aI272
aI549
aI952
aI964
aa(lp564
I134
aI168
aI533
aI609
aI672
aI723
aI773
aI883
aI954
aI965
aI974
aI989
aa(lp565
I4
aI44
aI130
aI146
aI157
aI450
aI550
aI552
aI589
aI595
aI706
aI760
aI794
aI944
aa(lp566
I52
aI283
aI416
aI552
aI645
aI710
aI734
aI744
aI757
aI965
aa(lp567
I134
aI271
aI339
aI349
aI394
aI411
aI505
aI524
aI535
aI592
aI612
aI713
aI802
aI864
aa(lp568
I19
aI194
aI319
aI475
aI503
aI551
aI660
aI695
aI768
aI823
aI889
aI911
aa(lp569
I91
aI127
aI153
aI177
aI224
aI393
aI453
aI775
aI791
aI808
aI885
aa(lp570
I22
aI54
aI129
aI186
aI219
aI278
aI370
aI479
aI538
aI643
aI739
aI861
aa(lp571
I79
aI177
aI307
aI461
aI504
aI515
aI643
aI672
aI924
aa(lp572
I15
aI152
aI176
aI368
aI514
aI537
aI572
aI665
aI906
aI937
aa(lp573
I54
aI112
aI136
aI273
aI320
aI391
aI409
aI429
aI679
aI711
aI817
aI916
aa(lp574
I105
aI126
aI232
aI236
aI314
aI315
aI387
aI391
aI479
aI591
aI700
aI714
aI794
aI917
aa(lp575
I185
aI189
aI221
aI302
aI309
aI345
aI359
aI770
aI815
aI844
aI960
aI986
aa(lp576
I84
aI336
aI368
aI399
aI408
aI453
aI534
aI563
aI807
aI810
aa(lp577
I65
aI120
aI137
aI225
aI339
aI392
aI511
aI548
aI592
aI766
aI885
aI961
aa(lp578
I207
aI272
aI302
aI491
aI620
aI896
aI898
aI913
aa(lp579
I116
aI144
aI400
aI511
aI552
aI557
aI796
aa(lp580
I7
aI213
aI218
aI260
aI487
aI540
aI577
aI661
aI689
aI910
aa(lp581
I2
aI178
aI192
aI207
aI555
aI609
aI614
aI641
aI790
aI836
aa(lp582
I90
aI295
aI399
aI505
aI725
aI735
aI846
aI908
aI947
aa(lp583
I75
aI93
aI207
aI229
aI269
aI275
aI346
aI497
aI538
aI897
aI956
aI994
aa(lp584
I106
aI346
aI657
aI682
aI808
aI824
aI876
aa(lp585
I28
aI283
aI445
aI465
aI483
aI604
aI650
aI743
aI809
aa(lp586
I43
aI119
aI193
aI228
aI285
aI383
aI504
aI686
aI824
aI841
aI845
aI907
aa(lp587
I79
aI107
aI121
aI204
aa(lp588
I5
aI24
aI125
aI175
aI187
aI231
aI334
aI541
aI568
aI688
aI743
aI993
aa(lp589
I75
aI530
aI544
aI622
aI748
aI762
aI830
aa(lp590
I9
aI79
aI270
aI278
aI325
aI341
aI350
aI445
aI628
aI663
aI917
aI973
aa(lp591
I14
aI21
aI92
aI213
aI214
aI321
aI422
aI527
aI546
aI563
aI827
aI926
aa(lp592
I80
aI123
aI147
aI209
aI465
aI651
aI663
aa(lp593
I63
aI204
aI228
aI310
aI316
aI320
aI323
aI346
aI376
aI489
aI596
aI668
aI739
aI774
aa(lp594
I72
aI176
aI305
aI383
aI832
aI837
aI877
aa(lp595
I230
aI393
aI417
aI510
aI964
aI994
aa(lp596
I49
aI57
aI92
aI116
aI155
aI173
aI356
aI424
aI572
aI619
aI817
aa(lp597
I28
aI314
aI381
aI418
aI491
aI550
aI692
aI719
aI757
aI787
aI910
aI977
aa(lp598
I89
aI215
aI245
aI252
aI370
aI538
aI620
aI669
aI690
aI785
aI938
aa(lp599
I65
aI261
aI291
aI380
aI402
aI451
aI468
aI494
aI610
aI750
aI891
aI927
aI961
aa(lp600
I110
aI168
aI306
aI427
aI587
aI591
aI615
aI668
aI724
aI771
aa(lp601
I111
aI114
aI131
aI441
aI781
aI790
aI954
aa(lp602
I20
aI91
aI120
aI123
aI272
aI483
aI496
aI791
aI826
aI992
aa(lp603
I253
aI384
aI492
aI497
aI505
aI667
aI840
aa(lp604
I123
aI279
aI331
aI381
aI479
aI522
aI579
aI628
aI629
aI667
aI720
aI736
aI897
aa(lp605
I110
aI306
aI555
aI686
aI692
aI847
aI949
aa(lp606
I45
aI48
aI118
aI157
aI171
aI278
aI372
aI414
aI442
aI600
aI614
aI808
aI845
aI982
aa(lp607
I54
aI56
aI289
aI292
aI302
aI410
aI420
aI491
aI500
aI767
aI901
aI941
aI979
aa(lp608
I362
aI442
aI450
aI602
aI650
aI767
aI774
aI777
aI807
aI829
aI914
aI976
aa(lp609
I102
aI296
aI330
aI756
aI923
aa(lp610
I133
aI220
aI258
aI302
aI444
aI475
aI541
aI550
aI632
aI758
aI825
aI987
aa(lp611
I22
aI239
aI264
aI781
aI896
aa(lp612
I73
aI93
aI239
aI243
aI373
aI574
aI596
aI649
aI809
aI871
aa(lp613
I79
aI257
aI330
aI359
aI450
aI459
aI579
aI682
aI731
aI742
aI781
aI834
aa(lp614
I36
aI309
aI363
aI406
aI480
aI500
aI570
aI777
aI852
aI880
aI977
aa(lp615
I50
aI108
aI121
aI500
aI534
aI613
aI661
aI732
aI741
aI796
aI957
aa(lp616
I8
aI61
aI276
aI709
aI741
aI790
aI882
aa(lp617
I155
aI210
aI245
aI264
aI304
aI538
aI664
aI666
aI718
aI720
aI794
aI981
aa(lp618
I22
aI224
aI264
aI420
aI439
aI540
aI614
aI758
aa(lp619
I252
aI774
aI791
aI929
aI982
aI994
aa(lp620
I61
aI359
aI618
aI680
aI685
aI752
aI810
aI916
aa(lp621
I101
aI159
aI189
aI207
aI258
aI272
aI986
aa(lp622
I345
aI481
aI506
aI548
aI586
aI693
aI816
aI928
aI976
aa(lp623
I45
aI65
aI66
aI108
aI304
aI382
aI384
aI475
aI548
aI667
aI672
aI764
aI766
aI768
aI812
aI856
aI872
aI893
aa(lp624
I86
aI160
aI251
aI355
aI380
aI471
aI698
aI730
aI732
aI838
aI916
aI944
aI965
aa(lp625
I33
aI156
aI210
aI274
aI781
aI869
aI977
aa(lp626
I136
aI206
aI330
aI419
aI436
aI825
aI851
aI871
aa(lp627
I71
aI253
aI336
aI578
aI660
aI857
aI905
aa(lp628
I16
aI65
aI89
aI382
aI544
aI560
aI569
aI604
aI646
aI650
aI858
aa(lp629
I338
aI342
aI474
aI568
aI811
aI881
aI930
aI990
aa(lp630
I56
aI90
aI133
aI767
aI847
aI885
aI903
aa(lp631
I0
aI43
aI208
aI241
aI248
aI316
aI834
aI872
aI880
aI900
aa(lp632
I137
aI169
aI377
aI500
aI554
aI661
aI749
aI758
aI926
aa(lp633
I10
aI73
aI87
aI157
aI163
aI164
aI277
aI335
aI405
aI486
aI775
aI961
aI977
aa(lp634
I34
aI148
aI161
aI168
aI406
aI410
aI412
aI440
aI481
aI520
aI553
aI617
aI701
aa(lp635
I20
aI111
aI126
aI174
aI221
aI550
aI655
aI866
aI882
aa(lp636
I127
aI134
aI193
aI248
aI274
aI278
aI337
aI355
aI387
aI396
aI421
aI425
aI574
aI609
aI918
aI929
aa(lp637
I6
aI38
aI378
aI388
aI428
aI698
aI775
aa(lp638
I14
aI21
aI130
aI260
aI272
aI311
aI346
aI398
aI420
aI440
aI504
aI587
aI710
aI732
aI793
aI874
aI973
aa(lp639
I123
aI125
aI167
aI182
aI247
aI382
aI543
aI561
aI597
aI820
aa(lp640
I4
aI15
aI220
aI400
aI766
aI797
aI962
aa(lp641
I94
aI171
aI313
aI459
aI464
aI650
aI740
aI785
aI821
aa(lp642
I19
aI108
aI126
aI153
aI331
aI459
aI508
aI509
aI559
aI659
aI681
aI858
aI964
aa(lp643
I13
aI64
aI78
aI141
aI369
aI419
aI473
aI502
aI631
aI807
aI847
aI866
aa(lp644
I36
aI51
aI148
aI331
aI367
aI385
aI627
aI651
aI703
aI763
aI932
aI984
aa(lp645
I61
aI90
aI99
aI110
aI272
aI305
aI308
aI338
aI382
aI429
aI439
aI504
aI617
aI625
aI773
aI846
aa(lp646
I36
aI58
aI94
aI219
aI491
aI641
aI700
aI703
aI856
aa(lp647
I53
aI150
aI452
aI579
aI859
aI863
aI876
aa(lp648
I3
aI4
aI73
aI123
aI129
aI153
aI176
aI186
aI281
aI339
aI380
aI464
aI498
aI607
aI618
aI783
aI833
aI851
aI932
aa(lp649
I50
aI72
aI121
aI365
aI437
aI520
aI616
aI658
aI729
aI921
aI928
aa(lp650
I21
aI25
aI68
aI97
aI130
aI523
aI755
aI798
aI811
aI934
aa(lp651
I82
aI122
aI150
aI334
aI387
aI417
aI456
aI555
aI630
aI670
aI821
aI868
aa(lp652
I26
aI101
aI123
aI275
aI333
aI461
aI807
aa(lp653
I98
aI111
aI147
aI347
aI460
aI489
aI500
aI596
aI597
aI743
aI976
aI981
aI998
aa(lp654
I16
aI34
aI103
aI224
aI259
aI480
aI506
aI705
aI730
aI948
aI967
aa(lp655
I40
aI167
aI180
aI672
aI814
aI849
aI859
aI900
aI986
aa(lp656
I3
aI102
aI129
aI151
aI274
aI672
aI704
aI737
aI760
aI832
aI884
aI919
aI948
aI954
aa(lp657
I17
aI273
aI329
aI337
aI468
aI531
aI640
aI743
aI752
aI762
aI858
aI888
aI913
aa(lp658
I165
aI273
aI276
aI318
aI708
aI836
aI919
aa(lp659
I46
aI124
aI149
aI356
aI569
aI734
aI772
aI924
aa(lp660
I149
aI276
aI431
aI446
aI483
aI573
aI708
aI745
aI783
aI833
aI843
aI877
aa(lp661
I16
aI23
aI132
aI331
aI441
aI505
aI636
aa(lp662
I111
aI126
aI207
aI280
aI447
aI484
aI621
aI726
aI741
aI781
aI808
aI836
aa(lp663
I80
aI132
aI319
aI433
aI487
aI823
aI834
aI844
aI903
aI912
aa(lp664
I96
aI146
aI151
aI272
aI291
aI367
aI450
aI545
aI600
aI611
aI724
aI831
aI896
aI968
aI982
aa(lp665
I269
aI341
aI421
aI605
aI686
aI789
aI888
aI917
aI925
aI988
aI995
aa(lp666
I149
aI450
aI538
aI589
aI777
aI796
aI825
aI831
aI839
aI868
aI901
aI966
aa(lp667
I17
aI141
aI187
aI580
aI620
aI656
aI679
aI760
aI963
aI996
aa(lp668
I12
aI165
aI207
aI304
aI409
aI521
aI543
aI591
aI707
aI811
aI838
aI860
aa(lp669
I188
aI399
aI442
aI457
aI474
aI588
aI644
aI648
aI693
aI768
aI796
aI803
aa(lp670
I89
aI379
aI394
aI800
aI843
aI947
aI957
aa(lp671
I1
aI186
aI193
aI216
aI259
aI313
aI481
aI590
aI684
aI986
aa(lp672
I3
aI17
aI24
aI38
aI45
aI220
aI300
aI350
aI531
aI771
aI813
aI863
aI942
aI969
aa(lp673
I34
aI175
aI265
aI359
aI374
aI471
aI591
aa(lp674
I14
aI89
aI91
aI171
aI199
aI215
aI751
aI843
aa(lp675
I88
aI303
aI337
aI351
aI395
aI606
aI680
aI683
aI714
aI882
aI906
aI934
aI967
aa(lp676
I170
aI278
aI817
aI930
aa(lp677
I38
aI242
aI331
aI436
aI506
aI541
aI574
aI776
aI924
aa(lp678
I81
aI222
aI331
aI406
aI419
aI642
aI649
aI717
aI824
aI916
aa(lp679
I17
aI235
aI481
aI484
aI524
aI837
aI850
aa(lp680
I41
aI74
aI200
aI556
aI559
aI636
aI637
aI748
aI760
aI820
aI922
aI956
aa(lp681
I141
aI367
aI386
aI397
aI437
aI457
aI495
aI500
aI644
aI840
aI951
aa(lp682
I592
aI610
aI665
aI749
aI776
aI816
aI830
aI846
aI977
aa(lp683
I127
aI164
aI303
aI312
aI524
aI527
aI585
aI606
aI615
aI677
aI733
aI758
aI915
aa(lp684
I10
aI80
aI162
aI250
aI300
aI368
aI370
aI428
aI434
aI500
aI575
aI657
aI894
aa(lp685
I42
aI65
aI82
aI603
aI631
aI670
aI721
aI764
aI789
aI856
aI871
aI888
aa(lp686
I125
aI307
aI445
aI489
aI657
aI948
aI976
aa(lp687
I30
aI111
aI116
aI236
aI411
aI415
aI519
aI552
aI561
aI669
aI853
aa(lp688
I152
aI298
aI354
aI489
aI500
aI621
aI627
aI630
aI746
aI851
aa(lp689
I108
aI383
aI531
aI599
aI646
aI883
aa(lp690
I5
aI48
aI256
aI658
aI751
aI825
aI894
aI919
aa(lp691
I124
aI195
aI413
aI486
aI491
aI532
aI688
aI924
aI958
aa(lp692
I134
aI182
aI186
aI323
aI357
aI403
aI478
aI722
aI860
aa(lp693
I148
aI248
aI501
aI519
aI535
aI655
aI725
aI765
aI975
aa(lp694
I37
aI107
aI513
aI617
aI894
aI915
aa(lp695
I6
aI44
aI64
aI90
aI103
aI195
aI216
aI239
aI361
aI378
aI450
aI703
aI772
aI789
aI852
aa(lp696
I41
aI162
aI181
aI424
aI484
aI501
aI567
aI704
aI822
aI881
aa(lp697
I79
aI439
aI468
aI571
aI731
aI759
aa(lp698
I61
aI643
aI671
aI755
aI787
aI973
aa(lp699
I26
aI83
aI96
aI307
aI497
aI605
aI710
aI733
aI863
aI868
aI926
aa(lp700
I162
aI259
aI400
aI485
aI546
aI705
aI787
aI814
aI826
aI931
aa(lp701
I4
aI66
aI177
aI227
aI259
aI624
aI712
aI714
aI735
aI918
aI931
aI945
aI955
aI992
aa(lp702
I101
aI289
aI422
aI454
aI500
aI562
aI565
aI576
aI649
aI653
aI659
aI668
aI673
aI829
aI908
aa(lp703
I60
aI126
aI188
aI409
aI603
aI620
aI634
aI684
aa(lp704
I24
aI346
aI364
aI376
aI390
aI475
aI482
aI619
aI661
aI717
aI806
aI900
aa(lp705
I9
aI56
aI156
aI201
aI427
aI489
aI505
aI690
aI915
aa(lp706
I95
aI145
aI253
aI316
aI321
aI332
aI398
aI485
aI708
aI790
aI965
aI970
aa(lp707
I61
aI105
aI292
aI328
aI355
aI435
aI492
aI573
aI593
aI632
aI670
aI718
aI751
aI974
aa(lp708
I252
aI338
aI467
aI514
aI597
aI653
aI737
aa(lp709
I55
aI182
aI200
aI321
aI356
aI386
aI550
aI561
aI648
aI696
aI733
aI750
aI759
aI866
aI898
aI938
aI956
aa(lp710
I17
aI69
aI280
aI306
aI364
aI425
aI461
aI497
aI502
aI683
aI866
aI892
aI956
aI978
aa(lp711
I389
aI396
aI483
aI570
aI706
aI838
aI854
aI861
aI910
aI913
aI919
aI982
aa(lp712
I55
aI160
aI272
aI375
aI588
aI593
aI656
aI672
aI692
aI719
aI734
aI798
aI974
aI999
aa(lp713
I40
aI216
aI375
aI652
aI726
aI742
aI819
aI856
aI903
aa(lp714
I56
aI71
aI140
aI176
aI278
aI751
aI936
aa(lp715
I174
aI247
aI290
aI338
aI359
aI379
aI642
aI739
aI755
aI956
aI958
aI965
aI989
aa(lp716
I216
aI353
aI419
aI566
aI656
aI741
aI779
aI843
aI856
aa(lp717
I51
aI150
aI194
aI238
aI332
aI372
aI376
aI435
aI542
aI689
aa(lp718
I88
aI242
aI441
aI450
aI572
aI667
aI880
aa(lp719
I96
aI223
aI228
aI253
aI418
aI425
aI642
aI708
aI902
aa(lp720
I24
aI47
aI284
aI362
aI597
aI623
aI686
aI703
aI941
aa(lp721
I66
aI79
aI220
aI286
aI330
aI333
aI377
aI445
aI620
aI621
aI646
aI676
aI875
aI938
aI985
aa(lp722
I135
aI190
aI352
aI375
aI394
aI442
aI489
aI684
aI819
aI996
aa(lp723
I131
aI132
aI236
aI446
aI485
aI530
aI655
aI664
aI823
aI904
aa(lp724
I11
aI104
aI111
aI237
aI629
aI645
aI711
aI715
aI800
aa(lp725
I92
aI171
aI204
aI243
aI325
aI466
aI470
aI555
aI608
aI645
aI764
aI796
aI951
aa(lp726
I6
aI63
aI99
aI115
aI316
aI408
aI427
aI536
aI711
aI934
aI982
aa(lp727
I34
aI77
aI119
aI121
aI199
aI471
aI805
aI886
aI956
aa(lp728
I59
aI114
aI156
aI174
aI447
aI448
aI911
aa(lp729
I107
aI453
aI493
aI515
aI596
aI974
aa(lp730
I17
aI36
aI244
aI341
aI343
aI381
aI464
aI776
aI828
aI923
aa(lp731
I94
aI225
aI230
aI546
aI613
aI731
aI928
aI997
aa(lp732
I6
aI60
aI87
aI166
aI308
aI459
aI502
aI533
aI535
aI592
aI681
aI821
aI866
aI925
aa(lp733
I41
aI291
aI410
aI613
aI659
aI970
aa(lp734
I33
aI75
aI293
aI401
aI408
aI440
aI505
aI564
aI639
aI939
aa(lp735
I8
aI424
aI528
aI529
aI861
aI923
aI995
aa(lp736
I84
aI204
aI213
aI239
aI372
aI385
aI455
aI476
aI526
aI542
aI595
aI670
aI680
aI768
aI780
aI860
aI966
aa(lp737
I35
aI485
aI531
aI634
aI718
aI773
aI800
aI922
aI951
aa(lp738
I4
aI129
aI464
aI476
aI510
aI580
aI738
aI818
aI946
aa(lp739
I125
aI324
aI384
aI386
aI914
aI928
aI998
aa(lp740
I46
aI111
aI338
aI444
aI648
aI697
aI823
aa(lp741
I352
aI508
aI688
aI704
aI905
aa(lp742
I92
aI345
aI611
aI636
aI641
aI691
aI724
aI829
aI958
aa(lp743
I139
aI154
aI246
aI297
aI455
aI524
aI599
aI693
aI776
aI943
aI957
aa(lp744
I113
aI214
aI387
aI404
aI539
aI565
aI797
aI805
aI865
aI979
aa(lp745
I158
aI218
aI447
aI487
aI497
aI563
aI658
aI723
aI750
aI775
aI811
aI870
aa(lp746
I91
aI112
aI239
aI283
aI305
aI471
aI480
aI498
aI567
aI570
aI592
aI685
aI797
aI820
aI983
aa(lp747
I33
aI103
aI430
aI508
aI680
aI828
aa(lp748
I96
aI126
aI211
aI579
aI640
aI659
aI900
aI935
aa(lp749
I47
aI148
aI247
aI418
aI457
aI703
aI741
aa(lp750
I66
aI176
aI201
aI299
aI301
aI346
aI359
aI496
aI505
aI525
aI552
aI572
aI737
aI863
aI869
aI871
aI923
aI996
aa(lp751
I195
aI245
aI285
aI350
aI424
aI564
aI681
aI724
aI904
aa(lp752
I287
aI379
aI730
aI774
aI793
aI868
aI894
aI967
aa(lp753
I188
aI287
aI344
aI369
aI389
aI392
aI642
aI643
aI741
aI781
aI800
aa(lp754
I9
aI67
aI215
aI266
aI421
aI445
aI492
aI599
aI679
aI957
aa(lp755
I29
aI158
aI241
aI255
aI326
aI504
aI718
aI961
aI976
aa(lp756
I30
aI110
aI765
aI806
aI985
aa(lp757
I55
aI99
aI124
aI139
aI211
aI236
aI392
aI541
aI611
aI704
aI880
aa(lp758
I85
aI93
aI117
aI341
aI381
aI409
aI416
aI475
aI504
aI551
aI580
aI665
aI737
aI985
aa(lp759
I168
aI246
aI292
aI376
aI436
aI560
aI585
aI694
aI699
aI735
aI884
aa(lp760
I73
aI235
aI524
aI555
aI780
aI869
aa(lp761
I41
aI71
aI113
aI121
aI285
aI288
aI378
aI689
aI821
aI987
aa(lp762
I56
aI62
aI248
aI274
aI280
aI417
aI863
aI875
aa(lp763
I17
aI59
aI99
aI114
aI212
aI792
aI852
aI919
aI943
aI971
aa(lp764
I194
aI256
aI365
aI385
aI394
aI481
aI570
aI604
aI630
aI648
aI744
aI861
aI907
aa(lp765
I46
aI159
aI500
aI620
aI761
aI975
aa(lp766
I278
aI431
aI436
aI588
aI682
aI815
aI859
aI947
aa(lp767
I37
aI162
aI248
aI327
aI341
aI430
aI541
aI596
aI629
aI679
aI741
aI816
aI982
aI986
aa(lp768
I40
aI105
aI117
aI133
aI151
aI478
aI607
aI772
aa(lp769
I289
aI401
aa(lp770
I174
aI374
aI401
aI403
aI456
aI554
aI809
aa(lp771
I170
aI177
aI358
aI520
aI687
aI745
aI932
aa(lp772
I55
aI59
aI90
aI140
aI145
aI174
aI187
aI400
aI463
aI574
aI681
aa(lp773
I157
aI431
aI539
aI565
aI637
aI638
aa(lp774
I152
aI334
aI386
aI446
aI502
aI575
aI579
aI591
aI597
aI636
aI662
aI715
aI744
aI763
aI892
aa(lp775
I146
aI176
aI181
aI295
aI599
aI733
aI795
aI817
aI825
aI890
aI933
aa(lp776
I47
aI258
aI275
aI328
aI355
aI393
aI674
aI800
aI891
aI947
aI968
aa(lp777
I7
aI157
aI244
aI457
aI527
aI621
aI682
aI720
aI811
aI897
aI923
aa(lp778
I41
aI350
aI372
aI397
aI430
aI694
aI771
aI860
aa(lp779
I13
aI147
aI232
aI452
aI477
aI707
aI846
aI904
aI966
aa(lp780
I8
aI336
aI464
aI489
aI490
aI560
aI570
aI614
aI671
aI769
aI955
aa(lp781
I46
aI115
aI304
aI327
aI630
aI739
aI857
aI890
aa(lp782
I44
aI79
aI114
aI127
aI243
aI268
aI281
aI283
aI295
aI296
aI348
aI375
aI394
aI445
aI586
aI783
aI839
aI877
aa(lp783
I69
aI237
aI281
aI289
aI336
aI418
aI742
aa(lp784
I26
aI31
aI122
aI241
aI264
aI304
aI474
aI596
aI647
aI678
aI779
aI795
aI822
aI901
aI933
aI958
aa(lp785
I1
aI35
aI63
aI261
aI394
aI442
aI476
aI514
aI524
aI559
aI686
aI740
aI933
aI935
aa(lp786
I56
aI178
aI227
aI510
aI767
aI879
aa(lp787
I475
aI653
aI928
aa(lp788
I56
aI85
aI116
aI132
aI144
aI186
aI194
aI206
aI254
aI683
aI738
aI761
aI797
aa(lp789
I24
aI260
aa(lp790
I97
aI266
aI370
aI558
aI661
aI847
aa(lp791
I0
aI63
aI105
aI146
aI319
aI323
aI446
aI460
aI548
aI610
aI633
aI663
aI725
aI756
aI986
aa(lp792
I293
aI320
aI491
aI514
aI670
aI714
aI849
aI926
aI949
aI959
aI971
aI991
aa(lp793
I419
aI460
aI512
aI676
aI708
aI759
aI806
aI954
aa(lp794
I240
aI392
aI501
aI970
aa(lp795
I8
aI154
aI208
aI355
aI447
aI558
aI597
aI711
aI966
aa(lp796
I11
aI78
aI269
aI395
aI496
aI525
aI527
aI543
aI621
aI687
aI731
aI839
aa(lp797
I166
aI400
aI562
aI563
aI607
aI854
aI874
aI881
aa(lp798
I185
aI197
aI440
aI753
aI810
aI906
aa(lp799
I210
aI228
aI339
aI378
aI442
aI495
aI574
aI602
aI645
aI672
aI807
aI862
aI882
aa(lp800
I116
aI170
aI205
aI446
aI695
aI899
aI962
aa(lp801
I65
aI238
aI375
aI448
aI450
aI463
aI802
aI821
aI873
aI945
aI994
aa(lp802
I96
aI176
aI217
aI433
aI521
aI544
aI596
aI673
aI720
aI741
aI768
aI807
aI836
aI975
aa(lp803
I77
aI223
aI307
aI607
aI613
aI784
aI789
aI794
aI874
aI929
aI948
aa(lp804
I64
aI213
aI226
aI250
aI343
aI464
aI470
aI498
aI780
aI968
aI986
aa(lp805
I1
aI29
aI40
aI105
aI196
aI633
aI657
aI884
aa(lp806
I252
aI310
aI586
aI588
aI736
aI757
aI789
aI991
aa(lp807
I20
aI30
aI140
aI147
aI188
aI531
aI542
aI586
aI595
aI669
aa(lp808
I5
aI91
aI203
aI384
aI426
aI477
aI592
aI618
aI685
aI720
aI732
aI795
aI927
aI949
aI972
aa(lp809
I29
aI58
aI191
aI226
aI231
aI427
aI436
aI615
aI647
aI665
aI796
aI923
aa(lp810
I19
aI95
aI327
aI384
aI469
aI795
aI898
aI952
aa(lp811
I74
aI234
aI322
aI358
aI371
aI412
aI642
aI971
aI979
aa(lp812
I215
aI263
aI493
aI584
aI626
aI635
aI834
aI844
aI909
aI942
aI962
aa(lp813
I122
aI206
aI288
aI435
aI507
aI573
aI584
aI614
aI659
aI728
aI731
aI854
aI949
aI972
aa(lp814
I13
aI183
aI296
aI322
aI347
aI514
aI556
aI759
aI799
aa(lp815
I105
aI135
aI332
aI341
aI432
aI536
aI575
aI580
aI632
aI658
aI725
aI741
aI880
aI992
aa(lp816
I74
aI131
aI206
aI254
aI347
aI493
aI530
aI607
aI735
aI740
aI748
aI790
aI845
aa(lp817
I68
aI213
aI346
aI386
aI571
aI589
aI943
aI959
aa(lp818
I5
aI31
aI67
aI433
aI528
aI595
aI625
aI750
aI844
aI884
aI948
aa(lp819
I6
aI75
aI266
aI370
aI417
aI422
aI723
aI930
aI954
aa(lp820
I8
aI236
aI278
aI674
aI880
aI883
aI991
aa(lp821
I10
aI116
aI141
aI148
aI253
aI305
aI411
aI522
aI622
aI867
aI905
aI913
aa(lp822
I36
aI87
aI119
aI155
aI194
aI578
aI582
aI704
aI741
aI781
aI808
aa(lp823
I20
aI46
aI185
aI195
aI287
aI297
aI350
aI459
aI478
aI512
aI569
aI624
aI634
aI702
aI707
aI805
aI818
aa(lp824
I22
aI94
aI138
aI250
aI259
aI276
aI340
aI661
aI679
aI727
aI735
aI980
aI999
aa(lp825
I48
aI124
aI132
aI173
aI177
aI734
aI850
aI859
aI988
aa(lp826
I280
aI295
aI338
aI368
aI397
aI420
aI537
aI592
aI719
aI773
aI776
aI916
aa(lp827
I599
aI883
aI916
aI929
aa(lp828
I7
aI280
aI339
aI714
aI956
aa(lp829
I39
aI90
aI133
aI228
aI257
aI331
aI376
aI388
aI519
aI639
aI713
aI834
aI857
aI895
aa(lp830
I66
aI147
aI260
aI285
aI419
aI553
aI580
aI777
aI820
aI859
aI888
aI911
aI914
aI953
aI969
aI994
aa(lp831
I13
aI27
aI87
aI231
aI237
aI438
aI663
aI873
aI914
aI972
aI975
aa(lp832
I275
aI438
aI453
aI515
aI582
aI605
aI718
aI720
aI864
aI874
aa(lp833
I61
aI213
aI280
aI311
aI349
aI408
aI418
aI602
aI665
aI752
aI851
aI923
aI971
aa(lp834
I13
aI73
aI86
aI209
aI294
aI365
aI367
aI466
aI512
aI523
aI555
aI558
aI938
aI975
aI991
aa(lp835
I77
aI236
aI261
aI263
aI290
aI294
aI646
aI654
aI699
aI750
aI809
aI891
aa(lp836
I87
aI225
aI274
aI306
aI323
aI434
aI516
aI578
aI628
aI649
aI726
aI824
aI932
aI950
aa(lp837
I95
aI296
aI302
aI403
aI556
aI586
aI638
aI730
aI780
aI782
aa(lp838
I139
aI165
aI167
aI217
aI218
aI356
aI681
aI738
aI802
aI816
aI823
aI857
aI988
aa(lp839
I60
aI84
aI169
aI266
aI373
aI398
aI422
aI561
aI713
aI734
aI858
aI902
aa(lp840
I164
aI269
aI340
aI432
aI628
aI920
aI931
aa(lp841
I129
aI134
aI164
aI217
aI308
aI355
aI766
aI916
aI997
aI998
aa(lp842
I113
aI313
aI347
aI409
aI665
aI671
aI735
aI795
aI993
aI996
aa(lp843
I84
aI315
aI331
aI391
aI403
aI423
aI497
aI524
aI844
aI893
aI909
aI951
aI978
aa(lp844
I27
aI94
aI95
aI332
aI366
aI399
aI758
aI773
aI785
aI787
aI822
aI827
aI900
aI930
aa(lp845
I11
aI137
aI582
aI664
aI675
aI708
aI776
aI864
aa(lp846
I36
aI88
aI227
aI288
aI403
aI419
aI538
aI590
aI721
aI737
aI936
aa(lp847
I30
aI49
aI125
aI823
aI897
aI915
aa(lp848
I14
aI84
aI121
aI164
aI350
aI366
aI515
aI626
aa(lp849
I166
aI199
aI261
aI349
aI363
aa(lp850
I170
aI213
aI329
aI346
aI388
aI405
aI570
aI612
aI650
aa(lp851
I60
aI183
aI381
aI582
aI741
aI822
aI920
aI974
aa(lp852
I1
aI55
aI73
aI136
aI183
aI203
aI448
aI485
aI502
aI768
aI960
aa(lp853
I139
aI240
aI315
aI381
aI634
aI637
aI670
aI725
aI894
aI959
aI985
aa(lp854
I58
aI175
aI226
aI294
aI310
aI314
aI537
aI818
aI829
aI901
aI976
aa(lp855
I135
aI157
aI186
aI440
aI563
aI651
aI777
aI865
aI909
aa(lp856
I305
aI306
aI369
aI439
aI668
aI703
aa(lp857
I15
aI158
aI220
aI235
aI290
aI670
aI800
aI811
aI877
aa(lp858
I72
aI83
aI194
aI301
aI387
aI647
aI715
aa(lp859
I32
aI162
aI189
aI223
aI227
aI339
aI391
aI395
aI438
aI463
aI513
aI552
aI868
aa(lp860
I182
aI189
aI226
aI234
aI265
aI339
aI483
aI521
aI579
aI628
aI765
aI809
aI830
aI942
aa(lp861
I5
aI65
aI75
aI470
aI489
aI597
aI608
aI639
aI651
aI686
aa(lp862
I41
aI149
aI327
aI398
aI399
aI402
aI465
aI511
aI520
aI552
aI570
aI612
aI758
aI805
aI977
aa(lp863
I30
aI66
aI157
aI352
aI401
aI402
aI423
aI479
aI484
aI612
aI633
aI646
aI896
aa(lp864
I135
aI176
aI348
aI428
aI472
aI564
aI642
aI789
aI958
aa(lp865
I86
aI175
aI298
aI396
aI408
aI721
aI813
aI871
aI998
aa(lp866
I35
aI150
aI154
aI253
aI504
aI518
aI588
aI757
aI758
aI821
aI895
aI911
aI953
aa(lp867
I105
aI106
aI110
aI238
aI352
aI492
aI535
aI618
aI739
aa(lp868
I100
aI151
aI191
aI288
aI546
aI592
aI764
aI783
aI819
aI836
aI871
aI883
aI894
aI895
aa(lp869
I170
aI464
aI621
aI680
aI693
aI695
aI741
aI818
aI982
aa(lp870
I69
aI284
aI300
aI374
aI544
aI701
aa(lp871
I297
aI625
aI664
aI768
aI961
aa(lp872
I161
aI163
aI254
aI353
aI372
aI392
aI408
aI625
aI783
aI893
aa(lp873
I54
aI299
aI331
aI476
aI823
aI829
aa(lp874
I24
aI248
aI367
aI679
aa(lp875
I252
aI292
aI475
aI531
aI559
aI590
aI655
aI829
aI997
aa(lp876
I73
aI271
aI297
aI330
aI409
aI846
aI898
aa(lp877
I25
aI96
aI129
aI154
aI161
aI290
aI299
aI537
aI574
aI651
aa(lp878
I221
aI322
aI439
aI458
aI532
aI709
aI755
aI871
aI886
aa(lp879
I69
aI148
aI417
aI648
aI662
aI726
aI737
aa(lp880
I1
aI86
aI236
aI338
aI557
aI927
aI933
aI997
aa(lp881
I19
aI22
aI159
aI180
aI249
aI335
aI361
aI367
aI373
aI474
aI523
aI537
aa(lp882
I26
aI235
aI240
aI313
aI350
aI431
aI448
aI450
aI666
aI717
aI804
aI963
aI990
aa(lp883
I237
aI273
aI332
aI382
aI459
aI482
aI511
aI636
aI660
aI744
aI914
aa(lp884
I140
aI163
aI201
aI221
aI352
aI357
aI360
aI423
aI524
aI579
aI664
aI964
aI987
aa(lp885
I121
aI191
aI317
aI388
aI629
aI657
aI721
aI740
aI760
aI868
aa(lp886
I30
aI89
aI164
aI203
aI228
aI232
aI289
aI304
aI496
aI504
aI508
aI634
aI668
aI764
aI840
aI978
aa(lp887
I3
aI56
aI192
aI202
aI278
aI283
aI288
aI291
aI295
aI422
aI471
aI653
aI699
aI796
aa(lp888
I12
aI29
aI130
aI323
aI421
aI501
aI507
aI522
aI568
aI627
aa(lp889
I21
aI39
aI98
aI251
aI318
aI546
aI719
aI770
aI854
aa(lp890
I264
aI365
aI371
aI477
aI506
aI529
aI708
aI845
aa(lp891
I107
aI138
aI477
aI602
aI627
aI744
aI799
aI922
aa(lp892
I73
aI110
aI114
aI130
aI438
aI463
aI762
aI841
aI991
aa(lp893
I357
aI523
aI781
aI786
aI900
aI912
aI992
aa(lp894
I170
aI266
aI305
aI539
aI556
aI647
aI804
aI904
aI929
aI998
aa(lp895
I20
aI59
aI128
aI135
aI464
aI707
aI771
aI781
aI873
aa(lp896
I92
aI396
aI659
aI688
aI753
aI778
aI856
aa(lp897
I18
aI23
aI82
aI219
aI268
aI358
aI641
aI647
aI656
aI733
aI766
aI908
aI976
aI994
aa(lp898
I86
aI405
aI414
aI431
aI502
aI597
aI930
aI953
aa(lp899
I15
aI118
aI173
aI212
aI328
aI349
aI389
aI459
aI572
aI590
aI680
aI727
aI929
aa(lp900
I0
aI228
aI236
aI631
aI795
aI854
aI866
aI977
aa(lp901
I215
aI247
aI368
aI421
aI463
aI508
aI626
aI851
aI867
aa(lp902
I61
aI94
aI145
aI157
aI205
aI252
aI318
aI324
aI398
aI510
aI748
aI846
aI941
aa(lp903
I203
aI280
aI377
aI480
aI500
aI599
aI605
aI684
aI764
aa(lp904
I139
aI175
aI488
aI524
aI545
aI683
aI753
aI817
aI904
aa(lp905
I260
aI354
aI363
aI436
aI575
aI799
aI870
aI944
aI988
aa(lp906
I357
aI587
aI713
aI723
aI737
aa(lp907
I35
aI70
aI221
aI308
aI312
aI447
aI515
aI546
aI580
aa(lp908
I23
aI52
aI98
aI128
aI299
aI348
aI519
aI547
aI600
aI644
aI773
aI813
aI960
aa(lp909
I167
aI215
aI226
aI859
aI917
aa(lp910
I30
aI102
aI149
aI336
aI399
aI443
aI468
aI499
aI880
aa(lp911
I146
aI259
aI264
aI277
aI326
aI470
aI610
aI766
aa(lp912
I39
aI165
aI252
aI296
aI345
aI434
aI553
aI666
aI727
aI825
aa(lp913
I20
aI601
aI658
aI951
aa(lp914
I111
aI135
aI273
aI393
aI838
aI885
aI898
aI967
aa(lp915
I0
aI133
aI178
aI200
aI211
aI277
aI456
aI736
aI977
aa(lp916
I24
aI47
aI88
aI189
aI341
aI375
aI408
aI527
aI564
aI863
aI932
aa(lp917
I5
aI17
aI467
aI469
aI694
aI875
aI983
aa(lp918
I85
aI97
aI104
aI196
aI299
aI323
aI343
aI451
aI469
aI531
aI734
aI859
aa(lp919
I247
aI283
aI300
aI434
aI458
aI505
aI634
aI723
aI772
aI838
aI841
aI891
aI910
aI915
aa(lp920
I382
aI586
aI598
aI863
aI996
aa(lp921
I172
aI215
aI220
aI221
aI365
aI413
aI603
aI632
aI659
aI677
aI686
aI698
aI830
aI915
aI925
aa(lp922
I35
aI93
aI239
aI332
aI358
aI401
aI413
aI443
aI691
aI919
aI932
aI934
aI950
aa(lp923
I16
aI142
aI191
aI287
aI419
aI512
aI597
aI673
aI772
aI884
aI981
aa(lp924
I268
aI360
aI367
aI427
aI476
aI567
aI662
aI950
aa(lp925
I35
aI60
aI109
aI200
aI358
aI450
aI464
aI701
aI712
aI742
aI794
aI826
aI941
aI967
aI989
aI998
aa(lp926
I4
aI142
aI186
aI218
aI353
aI536
aI639
aI663
aa(lp927
I113
aI231
aI399
aI525
aI577
aI599
aI658
aI948
aI990
aa(lp928
I37
aI90
aI537
aI648
aa(lp929
I77
aI153
aI198
aI532
aI576
aI679
aI701
aI958
aa(lp930
I134
aI171
aI268
aI515
aI588
aI692
aI713
aI804
aI847
aI956
aa(lp931
I1
aI118
aI173
aI238
aI343
aI359
aI416
aI508
aI629
aI729
aI782
aI876
aI961
aa(lp932
I130
aI240
aI271
aI308
aI413
aI459
aI650
aI816
aI918
aa(lp933
I199
aI206
aI291
aI342
aI446
aI454
aI490
aI550
aI600
aI764
aI961
aI994
aa(lp934
I102
aI250
aI414
aI534
aI545
aI900
aI949
aa(lp935
I134
aI322
aI577
aI712
aI732
aa(lp936
I55
aI125
aI257
aI447
aI508
aI722
aI871
aI887
aI994
aa(lp937
I18
aI49
aI407
aI625
aI711
aI824
aI963
aI970
aa(lp938
I74
aI136
aI244
aI359
aI389
aI525
aI705
aI848
aI851
aI879
aI886
aI988
aa(lp939
I317
aI487
aI501
aI516
aI587
aI645
aI717
aI787
aI923
aa(lp940
I13
aI75
aI80
aI172
aI184
aI255
aI287
aI452
aI488
aI508
aI628
aa(lp941
I5
aI29
aI193
aI211
aI225
aI251
aI289
aI471
aI611
aI767
aa(lp942
I129
aI203
aI280
aI313
aI520
aI528
aI855
aI859
aa(lp943
I380
aI484
aI560
aI823
aI830
aa(lp944
I43
aI94
aI129
aI146
aI265
aI312
aI314
aI331
aI467
aI724
aI765
aI878
aI892
aI903
aI974
aI981
aa(lp945
I99
aI141
aI183
aI285
aI295
aI403
aI405
aI513
aI609
aI810
aI830
aI928
aI983
aa(lp946
I78
aI221
aI356
aI402
aI602
aI657
aI706
aI751
aI766
aI868
aI924
aI959
aa(lp947
I15
aI30
aI66
aI154
aI243
aI324
aI511
aI665
aI697
aI771
aI794
aI802
aI916
aI947
aI963
aa(lp948
I31
aI51
aI119
aI209
aI316
aI341
aI463
aI521
aI626
aI809
aI869
aI960
aa(lp949
I57
aI85
aI209
aI216
aI363
aI391
aI630
aI880
aI942
aa(lp950
I45
aI124
aI257
aI273
aI344
aI443
aI446
aI645
aI785
aa(lp951
I85
aI108
aI130
aI219
aI348
aI411
aI509
aI529
aI574
aI670
aI714
aI764
aI796
aI844
aI894
aa(lp952
I49
aI175
aI186
aI234
aI372
aI391
aI598
aI963
aa(lp953
I46
aI72
aI159
aI204
aI220
aI250
aI268
aI503
aI525
aI601
aI654
aI704
aI908
aI989
aa(lp954
I171
aI176
aI234
aI815
aI901
aa(lp955
I168
aI311
aI386
aI423
aI505
aI539
aI559
aI616
aI643
aI792
aI946
aI991
aa(lp956
I45
aI81
aI258
aI269
aI279
aI284
aI285
aI370
aI412
aI453
aI566
aI599
aI659
aI778
aa(lp957
I22
aI161
aI239
aI253
aI261
aI518
aI576
aI753
aI922
aa(lp958
I15
aI63
aI257
aI472
aI511
aI536
aI593
aI636
aI765
aI769
aI772
aI799
aI889
aa(lp959
I167
aI184
aI352
aI424
aI494
aI570
aI590
aI767
aa(lp960
I164
aI633
aI733
aI898
aa(lp961
I32
aI71
aI73
aI113
aI220
aI294
aI411
aI474
aI486
aI505
aI672
aI802
aI892
aI997
aa(lp962
I157
aI233
aI247
aI385
aI478
aI853
aI881
aI911
aa(lp963
I164
aI397
aI411
aI469
aI569
aI584
aI724
aI832
aI844
aI986
aa(lp964
I147
aI231
aI245
aI418
aI794
aI807
aI900
aa(lp965
I157
aI246
aI278
aI302
aI335
aI351
aI471
aI600
aI728
aI815
aI924
aa(lp966
I30
aI132
aI147
aI179
aI217
aI446
aI694
aI752
aI919
aI980
aa(lp967
I211
aI275
aI409
aI494
aI661
aI947
aI993
aa(lp968
I55
aI84
aI233
aI371
aI493
aI507
aI626
aI720
aa(lp969
I89
aI212
aI215
aI226
aI318
aI417
aI559
aI685
aI776
aI921
aI996
aa(lp970
I100
aI552
aI628
aI796
aa(lp971
I246
aI279
aI320
aI395
aI583
aI659
aI685
aI752
aI765
aI874
aI910
aI980
aa(lp972
I159
aI334
aI342
aI431
aI483
aI499
aI527
aI603
aI667
aI712
aI852
aI880
aI936
aa(lp973
I175
aI295
aI342
aI613
aI653
aI725
aI790
aI804
aI822
aI920
aI933
aa(lp974
I26
aI43
aI60
aI142
aI345
aI401
aI530
aI587
aI608
aI717
aI840
aI915
aa(lp975
I49
aI67
aI130
aI315
aI357
aI369
aI373
aI460
aI530
aI583
aI780
aI799
aa(lp976
I151
aI268
aI817
aI824
aI928
aI972
aa(lp977
I205
aI331
aI700
aI809
aI954
aI958
aa(lp978
I77
aI164
aI231
aI271
aI273
aI381
aI489
aI686
aI707
aI786
aa(lp979
I173
aI368
aI715
aI745
aI813
aI942
aa(lp980
I50
aI324
aI486
aI502
aI542
aI591
aI627
aI872
aa(lp981
I1
aI141
aI544
aI666
aI893
aa(lp982
I18
aI180
aI354
aI510
aI575
aI670
aI738
aI781
aI797
aa(lp983
I108
aI284
aI404
aI485
aI576
aI694
aI699
aa(lp984
I166
aI253
aI271
aI506
aI607
aI645
aI655
aI682
aI838
aa(lp985
I127
aI194
aI284
aI305
aI335
aI519
aI540
aI553
aI832
aI899
aI925
aa(lp986
I61
aI69
aI90
aI169
aI254
aI325
aI485
aI578
aI755
aa(lp987
I152
aI182
aI252
aI403
aI432
aI626
aI652
aI693
aI827
aI978
aa(lp988
I29
aI153
aI264
aI378
aI490
aI620
aI795
aI911
aI914
aI995
aa(lp989
I11
aI55
aI59
aI119
aI132
aI248
aI352
aI392
aI466
aI493
aI494
aI639
aI662
aI738
aI966
aI967
aa(lp990
I262
aI278
aI468
aI571
aI624
aI655
aI715
aI720
aa(lp991
I161
aI441
aI478
aI482
aI492
aI613
aI622
aI664
aI740
aI870
aI888
aa(lp992
I15
aI49
aI169
aI299
aI452
aI500
aI575
aI686
aI793
aI846
aI876
aI966
aa(lp993
I197
aI219
aI314
aI600
aI663
aI699
aI748
aI819
aI867
aI884
aI998
aa(lp994
I123
aI179
aI191
aI514
aI592
aI845
aI877
aa(lp995
I23
aI64
aI86
aI117
aI397
aI533
aI638
aa(lp996
I289
aI297
aI499
aI532
aI579
aI607
aI736
aI758
aI786
aI822
aI892
aI989
aa(lp997
I15
aI119
aI131
aI175
aI231
aI349
aI416
aI443
aI772
aI896
aI897
aa(lp998
I29
aI51
aI195
aI296
aI465
aI537
aI577
aI609
aI852
aI878
aI933
aa(lp999
I0
aI15
aI261
aI321
aI698
aI902
aI909
aa(lp1000
I22
aI86
aI102
aI184
aI198
aI215
aI255
aI326
aI431
aI463
aI470
aI514
aI563
aI580
aI639
aI675
aI713
aI825
aI941
aa.